(dp0
S'checkpoint/checkpoint_steps'
p1
(lp2
I0
aI1
aI2
aI3
aI4
aI5
aI6
aI7
aI8
aI9
aI10
aI11
aI12
aI13
aI14
aI15
aI16
aI17
aI18
aI19
aI20
aI21
aI22
aI23
aI24
aI25
aI26
aI27
aI28
aI29
aI30
aI31
aI32
aI33
aI34
aI35
aI36
aI37
aI38
aI39
aI40
aI41
aI42
aI43
aI44
aI45
aI46
aI47
aI48
aI49
aI50
asVcheckpoint/checkpoint_train_acc
p3
(lp4
F0.0
aF0.0
aF0.0
aF0.0
aF0.0
aF0.0
aF0.0
aF0.0
aF0.0
aF0.0
aF0.0
aF0.0
aF0.0
aF0.0
aF0.0
aF0.0
aF0.0
aF0.0
aF0.0
aF0.0
aF0.0
aF0.0
aF0.0
aF0.0
aF0.0
aF0.0
aF0.0
aF0.0
aF0.0
aF0.0
aF0.0
aF0.0
aF0.0
aF0.0
aF0.0
aF0.0
aF0.0
aF0.0
aF0.0
aF0.0
aF0.0
aF0.0
aF0.0
aF0.0
aF0.0
aF0.0
aF0.0
aF0.0
aF0.0
aF0.0
aF0.0
asVtime/percentage_convergence_performance
p5
(lp6
F2.3811111450195312
aF0.6969108581542969
aF0.6952725648880005
aF0.6950997710227966
aF0.6950297951698303
aF0.6949952840805054
aF0.6949751377105713
aF0.6949630379676819
aF0.6949551701545715
aF0.694949746131897
aF0.6949463486671448
aF0.694943904876709
aF0.6949425935745239
aF0.6949419379234314
aF0.6949416399002075
aF0.6949419379234314
aF0.6949424147605896
aF0.6949432492256165
aF0.6949440240859985
aF0.6949450969696045
aF0.6949463486671448
aF0.6949475407600403
aF0.6949490904808044
aF0.6949504613876343
aF0.6949518322944641
aF0.6949535012245178
aF0.6949549317359924
aF0.6949568390846252
aF0.6949584484100342
aF0.6949600577354431
aF0.694961667060852
aF0.6949633955955505
aF0.6949650049209595
aF0.6949666738510132
aF0.6949682831764221
aF0.6949698328971863
aF0.6949715614318848
aF0.6949730515480042
aF0.6949746608734131
aF0.6949760317802429
aF0.6949777007102966
aF0.6949790120124817
aF0.694980263710022
aF0.6949816942214966
aF0.6949830055236816
aF0.6949842572212219
aF0.6949852705001831
aF0.6949865221977234
aF0.6949874758720398
aF0.6949884295463562
aF0.6949893832206726
asVcheckpoint/checkpoint_test_acc
p7
(lp8
F0.0
aF0.0
aF0.0
aF0.0
aF0.0
aF0.0
aF0.0
aF0.0
aF0.0
aF0.0
aF0.0
aF0.0
aF0.0
aF0.0
aF0.0
aF0.0
aF0.0
aF0.0
aF0.0
aF0.0
aF0.0
aF0.0
aF0.0
aF0.0
aF0.0
aF0.0
aF0.0
aF0.0
aF0.0
aF0.0
aF0.0
aF0.0
aF0.0
aF0.0
aF0.0
aF0.0
aF0.0
aF0.0
aF0.0
aF0.0
aF0.0
aF0.0
aF0.0
aF0.0
aF0.0
aF0.0
aF0.0
aF0.0
aF0.0
aF0.0
aF0.0
asS'training/training_steps'
p9
(lp10
I1
aI11
aI21
aI31
aI41
aI51
aI61
aI71
aI81
aI91
aI101
aI111
aI121
aI131
aI141
aI151
aI161
aI171
aI181
aI191
aI201
aI211
aI221
aI231
aI241
aI251
aI261
aI271
aI281
aI291
aI301
aI311
aI321
aI331
aI341
aI351
aI361
aI371
aI381
aI391
aI401
aI411
aI421
aI431
aI441
aI451
aI461
aI471
aI481
aI491
aI501
aI511
aI521
aI531
aI541
aI551
aI561
aI571
aI581
aI591
aI601
aI611
aI621
aI631
aI641
aI651
aI661
aI671
aI681
aI691
aI701
aI711
aI721
aI731
aI741
aI751
aI761
aI771
aI781
aI791
aI801
aI811
aI821
aI831
aI841
aI851
aI861
aI871
aI881
aI891
aI901
aI911
aI921
aI931
aI941
aI951
aI961
aI971
aI981
aI991
aI1001
aI1011
aI1021
aI1031
aI1041
aI1051
aI1061
aI1071
aI1081
aI1091
aI1101
aI1111
aI1121
aI1131
aI1141
aI1151
aI1161
aI1171
aI1181
aI1191
aI1201
aI1211
aI1221
aI1231
aI1241
aI1251
aI1261
aI1271
aI1281
aI1291
aI1301
aI1311
aI1321
aI1331
aI1341
aI1351
aI1361
aI1371
aI1381
aI1391
aI1401
aI1411
aI1421
aI1431
aI1441
aI1451
aI1461
aI1471
aI1481
aI1491
aI1501
aI1511
aI1521
aI1531
aI1541
aI1551
aI1561
aI1571
aI1581
aI1591
aI1601
aI1611
aI1621
aI1631
aI1641
aI1651
aI1661
aI1671
aI1681
aI1691
aI1701
aI1711
aI1721
aI1731
aI1741
aI1751
aI1761
aI1771
aI1781
aI1791
aI1801
aI1811
aI1821
aI1831
aI1841
aI1851
aI1861
aI1871
aI1881
aI1891
aI1901
aI1911
aI1921
aI1931
aI1941
aI1951
aI1961
aI1971
aI1981
aI1991
aI2001
aI2011
aI2021
aI2031
aI2041
aI2051
aI2061
aI2071
aI2081
aI2091
aI2101
aI2111
aI2121
aI2131
aI2141
aI2151
aI2161
aI2171
aI2181
aI2191
aI2201
aI2211
aI2221
aI2231
aI2241
aI2251
aI2261
aI2271
aI2281
aI2291
aI2301
aI2311
aI2321
aI2331
aI2341
aI2351
aI2361
aI2371
aI2381
aI2391
aI2401
aI2411
aI2421
aI2431
aI2441
aI2451
aI2461
aI2471
aI2481
aI2491
aI2501
aI2511
aI2521
aI2531
aI2541
aI2551
aI2561
aI2571
aI2581
aI2591
aI2601
aI2611
aI2621
aI2631
aI2641
aI2651
aI2661
aI2671
aI2681
aI2691
aI2701
aI2711
aI2721
aI2731
aI2741
aI2751
aI2761
aI2771
aI2781
aI2791
aI2801
aI2811
aI2821
aI2831
aI2841
aI2851
aI2861
aI2871
aI2881
aI2891
aI2901
aI2911
aI2921
aI2931
aI2941
aI2951
aI2961
aI2971
aI2981
aI2991
aI3001
aI3011
aI3021
aI3031
aI3041
aI3051
aI3061
aI3071
aI3081
aI3091
aI3101
aI3111
aI3121
aI3131
aI3141
aI3151
aI3161
aI3171
aI3181
aI3191
aI3201
aI3211
aI3221
aI3231
aI3241
aI3251
aI3261
aI3271
aI3281
aI3291
aI3301
aI3311
aI3321
aI3331
aI3341
aI3351
aI3361
aI3371
aI3381
aI3391
aI3401
aI3411
aI3421
aI3431
aI3441
aI3451
aI3461
aI3471
aI3481
aI3491
aI3501
aI3511
aI3521
aI3531
aI3541
aI3551
aI3561
aI3571
aI3581
aI3591
aI3601
aI3611
aI3621
aI3631
aI3641
aI3651
aI3661
aI3671
aI3681
aI3691
aI3701
aI3711
aI3721
aI3731
aI3741
aI3751
aI3761
aI3771
aI3781
aI3791
aI3801
aI3811
aI3821
aI3831
aI3841
aI3851
aI3861
aI3871
aI3881
aI3891
aI3901
aI3911
aI3921
aI3931
aI3941
aI3951
aI3961
aI3971
aI3981
aI3991
aI4001
aI4011
aI4021
aI4031
aI4041
aI4051
aI4061
aI4071
aI4081
aI4091
aI4101
aI4111
aI4121
aI4131
aI4141
aI4151
aI4161
aI4171
aI4181
aI4191
aI4201
aI4211
aI4221
aI4231
aI4241
aI4251
aI4261
aI4271
aI4281
aI4291
aI4301
aI4311
aI4321
aI4331
aI4341
aI4351
aI4361
aI4371
aI4381
aI4391
aI4401
aI4411
aI4421
aI4431
aI4441
aI4451
aI4461
aI4471
aI4481
aI4491
aI4501
aI4511
aI4521
aI4531
aI4541
aI4551
aI4561
aI4571
aI4581
aI4591
aI4601
aI4611
aI4621
aI4631
aI4641
aI4651
aI4661
aI4671
aI4681
aI4691
aI4701
aI4711
aI4721
aI4731
aI4741
aI4751
aI4761
aI4771
aI4781
aI4791
aI4801
aI4811
aI4821
aI4831
aI4841
aI4851
aI4861
aI4871
aI4881
aI4891
aI4901
aI4911
aI4921
aI4931
aI4941
aI4951
aI4961
aI4971
aI4981
aI4991
aI5001
aI5011
aI5021
aI5031
aI5041
aI5051
aI5061
aI5071
aI5081
aI5091
aI5101
aI5111
aI5121
aI5131
aI5141
aI5151
aI5161
aI5171
aI5181
aI5191
aI5201
aI5211
aI5221
aI5231
aI5241
aI5251
aI5261
aI5271
aI5281
aI5291
aI5301
aI5311
aI5321
aI5331
aI5341
aI5351
aI5361
aI5371
aI5381
aI5391
aI5401
aI5411
aI5421
aI5431
aI5441
aI5451
aI5461
aI5471
aI5481
aI5491
aI5501
aI5511
aI5521
aI5531
aI5541
aI5551
aI5561
aI5571
aI5581
aI5591
aI5601
aI5611
aI5621
aI5631
aI5641
aI5651
aI5661
aI5671
aI5681
aI5691
aI5701
aI5711
aI5721
aI5731
aI5741
aI5751
aI5761
aI5771
aI5781
aI5791
aI5801
aI5811
aI5821
aI5831
aI5841
aI5851
aI5861
aI5871
aI5881
aI5891
aI5901
aI5911
aI5921
aI5931
aI5941
aI5951
aI5961
aI5971
aI5981
aI5991
aI6001
aI6011
aI6021
aI6031
aI6041
aI6051
aI6061
aI6071
aI6081
aI6091
aI6101
aI6111
aI6121
aI6131
aI6141
aI6151
aI6161
aI6171
aI6181
aI6191
aI6201
aI6211
aI6221
aI6231
aI6241
aI6251
aI6261
aI6271
aI6281
aI6291
aI6301
aI6311
aI6321
aI6331
aI6341
aI6351
aI6361
aI6371
aI6381
aI6391
aI6401
aI6411
aI6421
aI6431
aI6441
aI6451
aI6461
aI6471
aI6481
aI6491
aI6501
aI6511
aI6521
aI6531
aI6541
aI6551
aI6561
aI6571
aI6581
aI6591
aI6601
aI6611
aI6621
aI6631
aI6641
aI6651
aI6661
aI6671
aI6681
aI6691
aI6701
aI6711
aI6721
aI6731
aI6741
aI6751
aI6761
aI6771
aI6781
aI6791
aI6801
aI6811
aI6821
aI6831
aI6841
aI6851
aI6861
aI6871
aI6881
aI6891
aI6901
aI6911
aI6921
aI6931
aI6941
aI6951
aI6961
aI6971
aI6981
aI6991
aI7001
aI7011
aI7021
aI7031
aI7041
aI7051
aI7061
aI7071
aI7081
aI7091
aI7101
aI7111
aI7121
aI7131
aI7141
aI7151
aI7161
aI7171
aI7181
aI7191
aI7201
aI7211
aI7221
aI7231
aI7241
aI7251
aI7261
aI7271
aI7281
aI7291
aI7301
aI7311
aI7321
aI7331
aI7341
aI7351
aI7361
aI7371
aI7381
aI7391
aI7401
aI7411
aI7421
aI7431
aI7441
aI7451
aI7461
aI7471
aI7481
aI7491
aI7501
aI7511
aI7521
aI7531
aI7541
aI7551
aI7561
aI7571
aI7581
aI7591
aI7601
aI7611
aI7621
aI7631
aI7641
aI7651
aI7661
aI7671
aI7681
aI7691
aI7701
aI7711
aI7721
aI7731
aI7741
aI7751
aI7761
aI7771
aI7781
aI7791
aI7801
aI7811
aI7821
aI7831
aI7841
aI7851
aI7861
aI7871
aI7881
aI7891
aI7901
aI7911
aI7921
aI7931
aI7941
aI7951
aI7961
aI7971
aI7981
aI7991
aI8001
aI8011
aI8021
aI8031
aI8041
aI8051
aI8061
aI8071
aI8081
aI8091
aI8101
aI8111
aI8121
aI8131
aI8141
aI8151
aI8161
aI8171
aI8181
aI8191
aI8201
aI8211
aI8221
aI8231
aI8241
aI8251
aI8261
aI8271
aI8281
aI8291
aI8301
aI8311
aI8321
aI8331
aI8341
aI8351
aI8361
aI8371
aI8381
aI8391
aI8401
aI8411
aI8421
aI8431
aI8441
aI8451
aI8461
aI8471
aI8481
aI8491
aI8501
aI8511
aI8521
aI8531
aI8541
aI8551
aI8561
aI8571
aI8581
aI8591
aI8601
aI8611
aI8621
aI8631
aI8641
aI8651
aI8661
aI8671
aI8681
aI8691
aI8701
aI8711
aI8721
aI8731
aI8741
aI8751
aI8761
aI8771
aI8781
aI8791
aI8801
aI8811
aI8821
aI8831
aI8841
aI8851
aI8861
aI8871
aI8881
aI8891
aI8901
aI8911
aI8921
aI8931
aI8941
aI8951
aI8961
aI8971
aI8981
aI8991
aI9001
aI9011
aI9021
aI9031
aI9041
aI9051
aI9061
aI9071
aI9081
aI9091
aI9101
aI9111
aI9121
aI9131
aI9141
aI9151
aI9161
aI9171
aI9181
aI9191
aI9201
aI9211
aI9221
aI9231
aI9241
aI9251
aI9261
aI9271
aI9281
aI9291
aI9301
aI9311
aI9321
aI9331
aI9341
aI9351
aI9361
aI9371
aI9381
aI9391
aI9401
aI9411
aI9421
aI9431
aI9441
aI9451
aI9461
aI9471
aI9481
aI9491
aI9501
aI9511
aI9521
aI9531
aI9541
aI9551
aI9561
aI9571
aI9581
aI9591
aI9601
aI9611
aI9621
aI9631
aI9641
aI9651
aI9661
aI9671
aI9681
aI9691
aI9701
aI9711
aI9721
aI9731
aI9741
aI9751
aI9761
aI9771
aI9781
aI9791
aI9801
aI9811
aI9821
aI9831
aI9841
aI9851
aI9861
aI9871
aI9881
aI9891
aI9901
aI9911
aI9921
aI9931
aI9941
aI9951
aI9961
aI9971
aI9981
aI9991
aI10001
aI10011
aI10021
aI10031
aI10041
aI10051
aI10061
aI10071
aI10081
aI10091
aI10101
aI10111
aI10121
aI10131
aI10141
aI10151
aI10161
aI10171
aI10181
aI10191
aI10201
aI10211
aI10221
aI10231
aI10241
aI10251
aI10261
aI10271
aI10281
aI10291
aI10301
aI10311
aI10321
aI10331
aI10341
aI10351
aI10361
aI10371
aI10381
aI10391
aI10401
aI10411
aI10421
aI10431
aI10441
aI10451
aI10461
aI10471
aI10481
aI10491
aI10501
aI10511
aI10521
aI10531
aI10541
aI10551
aI10561
aI10571
aI10581
aI10591
aI10601
aI10611
aI10621
aI10631
aI10641
aI10651
aI10661
aI10671
aI10681
aI10691
aI10701
aI10711
aI10721
aI10731
aI10741
aI10751
aI10761
aI10771
aI10781
aI10791
aI10801
aI10811
aI10821
aI10831
aI10841
aI10851
aI10861
aI10871
aI10881
aI10891
aI10901
aI10911
aI10921
aI10931
aI10941
aI10951
aI10961
aI10971
aI10981
aI10991
aI11001
aI11011
aI11021
aI11031
aI11041
aI11051
aI11061
aI11071
aI11081
aI11091
aI11101
aI11111
aI11121
aI11131
aI11141
aI11151
aI11161
aI11171
aI11181
aI11191
aI11201
aI11211
aI11221
aI11231
aI11241
aI11251
aI11261
aI11271
aI11281
aI11291
aI11301
aI11311
aI11321
aI11331
aI11341
aI11351
aI11361
aI11371
aI11381
aI11391
aI11401
aI11411
aI11421
aI11431
aI11441
aI11451
aI11461
aI11471
aI11481
aI11491
aI11501
aI11511
aI11521
aI11531
aI11541
aI11551
aI11561
aI11571
aI11581
aI11591
aI11601
aI11611
aI11621
aI11631
aI11641
aI11651
aI11661
aI11671
aI11681
aI11691
aI11701
aI11711
aI11721
aI11731
aI11741
aI11751
aI11761
aI11771
aI11781
aI11791
aI11801
aI11811
aI11821
aI11831
aI11841
aI11851
aI11861
aI11871
aI11881
aI11891
aI11901
aI11911
aI11921
aI11931
aI11941
aI11951
aI11961
aI11971
aI11981
aI11991
aI12001
aI12011
aI12021
aI12031
aI12041
aI12051
aI12061
aI12071
aI12081
aI12091
aI12101
aI12111
aI12121
aI12131
aI12141
aI12151
aI12161
aI12171
aI12181
aI12191
aI12201
aI12211
aI12221
aI12231
aI12241
aI12251
aI12261
aI12271
aI12281
aI12291
aI12301
aI12311
aI12321
aI12331
aI12341
aI12351
aI12361
aI12371
aI12381
aI12391
aI12401
aI12411
aI12421
aI12431
aI12441
aI12451
aI12461
aI12471
aI12481
aI12491
aI12501
aI12511
aI12521
aI12531
aI12541
aI12551
aI12561
aI12571
aI12581
aI12591
aI12601
aI12611
aI12621
aI12631
aI12641
aI12651
aI12661
aI12671
aI12681
aI12691
aI12701
aI12711
aI12721
aI12731
aI12741
aI12751
aI12761
aI12771
aI12781
aI12791
aI12801
aI12811
aI12821
aI12831
aI12841
aI12851
aI12861
aI12871
aI12881
aI12891
aI12901
aI12911
aI12921
aI12931
aI12941
aI12951
aI12961
aI12971
aI12981
aI12991
aI13001
aI13011
aI13021
aI13031
aI13041
aI13051
aI13061
aI13071
aI13081
aI13091
aI13101
aI13111
aI13121
aI13131
aI13141
aI13151
aI13161
aI13171
aI13181
aI13191
aI13201
aI13211
aI13221
aI13231
aI13241
aI13251
aI13261
aI13271
aI13281
aI13291
aI13301
aI13311
aI13321
aI13331
aI13341
aI13351
aI13361
aI13371
aI13381
aI13391
aI13401
aI13411
aI13421
aI13431
aI13441
aI13451
aI13461
aI13471
aI13481
aI13491
aI13501
aI13511
aI13521
aI13531
aI13541
aI13551
aI13561
aI13571
aI13581
aI13591
aI13601
aI13611
aI13621
aI13631
aI13641
aI13651
aI13661
aI13671
aI13681
aI13691
aI13701
aI13711
aI13721
aI13731
aI13741
aI13751
aI13761
aI13771
aI13781
aI13791
aI13801
aI13811
aI13821
aI13831
aI13841
aI13851
aI13861
aI13871
aI13881
aI13891
aI13901
aI13911
aI13921
aI13931
aI13941
aI13951
aI13961
aI13971
aI13981
aI13991
aI14001
aI14011
aI14021
aI14031
aI14041
aI14051
aI14061
aI14071
aI14081
aI14091
aI14101
aI14111
aI14121
aI14131
aI14141
aI14151
aI14161
aI14171
aI14181
aI14191
aI14201
aI14211
aI14221
aI14231
aI14241
aI14251
aI14261
aI14271
aI14281
aI14291
aI14301
aI14311
aI14321
aI14331
aI14341
aI14351
aI14361
aI14371
aI14381
aI14391
aI14401
aI14411
aI14421
aI14431
aI14441
aI14451
aI14461
aI14471
aI14481
aI14491
aI14501
aI14511
aI14521
aI14531
aI14541
aI14551
aI14561
aI14571
aI14581
aI14591
aI14601
aI14611
aI14621
aI14631
aI14641
aI14651
aI14661
aI14671
aI14681
aI14691
aI14701
aI14711
aI14721
aI14731
aI14741
aI14751
aI14761
aI14771
aI14781
aI14791
aI14801
aI14811
aI14821
aI14831
aI14841
aI14851
aI14861
aI14871
aI14881
aI14891
aI14901
aI14911
aI14921
aI14931
aI14941
aI14951
aI14961
aI14971
aI14981
aI14991
aI15001
aI15011
aI15021
aI15031
aI15041
aI15051
aI15061
aI15071
aI15081
aI15091
aI15101
aI15111
aI15121
aI15131
aI15141
aI15151
aI15161
aI15171
aI15181
aI15191
aI15201
aI15211
aI15221
aI15231
aI15241
aI15251
aI15261
aI15271
aI15281
aI15291
aI15301
aI15311
aI15321
aI15331
aI15341
aI15351
aI15361
aI15371
aI15381
aI15391
aI15401
aI15411
aI15421
aI15431
aI15441
aI15451
aI15461
aI15471
aI15481
aI15491
aI15501
aI15511
aI15521
aI15531
aI15541
aI15551
aI15561
aI15571
aI15581
aI15591
aI15601
aI15611
aI15621
aI15631
aI15641
aI15651
aI15661
aI15671
aI15681
aI15691
aI15701
aI15711
aI15721
aI15731
aI15741
aI15751
aI15761
aI15771
aI15781
aI15791
aI15801
aI15811
aI15821
aI15831
aI15841
aI15851
aI15861
aI15871
aI15881
aI15891
aI15901
aI15911
aI15921
aI15931
aI15941
aI15951
aI15961
aI15971
aI15981
aI15991
aI16001
aI16011
aI16021
aI16031
aI16041
aI16051
aI16061
aI16071
aI16081
aI16091
aI16101
aI16111
aI16121
aI16131
aI16141
aI16151
aI16161
aI16171
aI16181
aI16191
aI16201
aI16211
aI16221
aI16231
aI16241
aI16251
aI16261
aI16271
aI16281
aI16291
aI16301
aI16311
aI16321
aI16331
aI16341
aI16351
aI16361
aI16371
aI16381
aI16391
aI16401
aI16411
aI16421
aI16431
aI16441
aI16451
aI16461
aI16471
aI16481
aI16491
aI16501
aI16511
aI16521
aI16531
aI16541
aI16551
aI16561
aI16571
aI16581
aI16591
aI16601
aI16611
aI16621
aI16631
aI16641
aI16651
aI16661
aI16671
aI16681
aI16691
aI16701
aI16711
aI16721
aI16731
aI16741
aI16751
aI16761
aI16771
aI16781
aI16791
aI16801
aI16811
aI16821
aI16831
aI16841
aI16851
aI16861
aI16871
aI16881
aI16891
aI16901
aI16911
aI16921
aI16931
aI16941
aI16951
aI16961
aI16971
aI16981
aI16991
aI17001
aI17011
aI17021
aI17031
aI17041
aI17051
aI17061
aI17071
aI17081
aI17091
aI17101
aI17111
aI17121
aI17131
aI17141
aI17151
aI17161
aI17171
aI17181
aI17191
aI17201
aI17211
aI17221
aI17231
aI17241
aI17251
aI17261
aI17271
aI17281
aI17291
aI17301
aI17311
aI17321
aI17331
aI17341
aI17351
aI17361
aI17371
aI17381
aI17391
aI17401
aI17411
aI17421
aI17431
aI17441
aI17451
aI17461
aI17471
aI17481
aI17491
aI17501
aI17511
aI17521
aI17531
aI17541
aI17551
aI17561
aI17571
aI17581
aI17591
aI17601
aI17611
aI17621
aI17631
aI17641
aI17651
aI17661
aI17671
aI17681
aI17691
aI17701
aI17711
aI17721
aI17731
aI17741
aI17751
aI17761
aI17771
aI17781
aI17791
aI17801
aI17811
aI17821
aI17831
aI17841
aI17851
aI17861
aI17871
aI17881
aI17891
aI17901
aI17911
aI17921
aI17931
aI17941
aI17951
aI17961
aI17971
aI17981
aI17991
aI18001
aI18011
aI18021
aI18031
aI18041
aI18051
aI18061
aI18071
aI18081
aI18091
aI18101
aI18111
aI18121
aI18131
aI18141
aI18151
aI18161
aI18171
aI18181
aI18191
aI18201
aI18211
aI18221
aI18231
aI18241
aI18251
aI18261
aI18271
aI18281
aI18291
aI18301
aI18311
aI18321
aI18331
aI18341
aI18351
aI18361
aI18371
aI18381
aI18391
aI18401
aI18411
aI18421
aI18431
aI18441
aI18451
aI18461
aI18471
aI18481
aI18491
aI18501
aI18511
aI18521
aI18531
aI18541
aI18551
aI18561
aI18571
aI18581
aI18591
aI18601
aI18611
aI18621
aI18631
aI18641
aI18651
aI18661
aI18671
aI18681
aI18691
aI18701
aI18711
aI18721
aI18731
aI18741
aI18751
aI18761
aI18771
aI18781
aI18791
aI18801
aI18811
aI18821
aI18831
aI18841
aI18851
aI18861
aI18871
aI18881
aI18891
aI18901
aI18911
aI18921
aI18931
aI18941
aI18951
aI18961
aI18971
aI18981
aI18991
aI19001
aI19011
aI19021
aI19031
aI19041
aI19051
aI19061
aI19071
aI19081
aI19091
aI19101
aI19111
aI19121
aI19131
aI19141
aI19151
aI19161
aI19171
aI19181
aI19191
aI19201
aI19211
aI19221
aI19231
aI19241
aI19251
aI19261
aI19271
aI19281
aI19291
aI19301
aI19311
aI19321
aI19331
aI19341
aI19351
aI19361
aI19371
aI19381
aI19391
aI19401
aI19411
aI19421
aI19431
aI19441
aI19451
aI19461
aI19471
aI19481
aI19491
aI19501
aI19511
aI19521
aI19531
aI19541
aI19551
aI19561
aI19571
aI19581
aI19591
aI19601
aI19611
aI19621
aI19631
aI19641
aI19651
aI19661
aI19671
aI19681
aI19691
aI19701
aI19711
aI19721
aI19731
aI19741
aI19751
aI19761
aI19771
aI19781
aI19791
aI19801
aI19811
aI19821
aI19831
aI19841
aI19851
aI19861
aI19871
aI19881
aI19891
aI19901
aI19911
aI19921
aI19931
aI19941
aI19951
aI19961
aI19971
aI19981
aI19991
aI20001
aI20011
aI20021
aI20031
aI20041
aI20051
aI20061
aI20071
aI20081
aI20091
aI20101
aI20111
aI20121
aI20131
aI20141
aI20151
aI20161
aI20171
aI20181
aI20191
aI20201
aI20211
aI20221
aI20231
aI20241
aI20251
aI20261
aI20271
aI20281
aI20291
aI20301
aI20311
aI20321
aI20331
aI20341
aI20351
aI20361
aI20371
aI20381
aI20391
aI20401
aI20411
aI20421
aI20431
aI20441
aI20451
aI20461
aI20471
aI20481
aI20491
aI20501
aI20511
aI20521
aI20531
aI20541
aI20551
aI20561
aI20571
aI20581
aI20591
aI20601
aI20611
aI20621
aI20631
aI20641
aI20651
aI20661
aI20671
aI20681
aI20691
aI20701
aI20711
aI20721
aI20731
aI20741
aI20751
aI20761
aI20771
aI20781
aI20791
aI20801
aI20811
aI20821
aI20831
aI20841
aI20851
aI20861
aI20871
aI20881
aI20891
aI20901
aI20911
aI20921
aI20931
aI20941
aI20951
aI20961
aI20971
aI20981
aI20991
aI21001
aI21011
aI21021
aI21031
aI21041
aI21051
aI21061
aI21071
aI21081
aI21091
aI21101
aI21111
aI21121
aI21131
aI21141
aI21151
aI21161
aI21171
aI21181
aI21191
aI21201
aI21211
aI21221
aI21231
aI21241
aI21251
aI21261
aI21271
aI21281
aI21291
aI21301
aI21311
aI21321
aI21331
aI21341
aI21351
aI21361
aI21371
aI21381
aI21391
aI21401
aI21411
aI21421
aI21431
aI21441
aI21451
aI21461
aI21471
aI21481
aI21491
aI21501
aI21511
aI21521
aI21531
aI21541
aI21551
aI21561
aI21571
aI21581
aI21591
aI21601
aI21611
aI21621
aI21631
aI21641
aI21651
aI21661
aI21671
aI21681
aI21691
aI21701
aI21711
aI21721
aI21731
aI21741
aI21751
aI21761
aI21771
aI21781
aI21791
aI21801
aI21811
aI21821
aI21831
aI21841
aI21851
aI21861
aI21871
aI21881
aI21891
aI21901
aI21911
aI21921
aI21931
aI21941
aI21951
aI21961
aI21971
aI21981
aI21991
aI22001
aI22011
aI22021
aI22031
aI22041
aI22051
aI22061
aI22071
aI22081
aI22091
aI22101
aI22111
aI22121
aI22131
aI22141
aI22151
aI22161
aI22171
aI22181
aI22191
aI22201
aI22211
aI22221
aI22231
aI22241
aI22251
aI22261
aI22271
aI22281
aI22291
aI22301
aI22311
aI22321
aI22331
aI22341
aI22351
aI22361
aI22371
aI22381
aI22391
aI22401
aI22411
aI22421
aI22431
aI22441
aI22451
aI22461
aI22471
aI22481
aI22491
aI22501
aI22511
aI22521
aI22531
aI22541
aI22551
aI22561
aI22571
aI22581
aI22591
aI22601
aI22611
aI22621
aI22631
aI22641
aI22651
aI22661
aI22671
aI22681
aI22691
aI22701
aI22711
aI22721
aI22731
aI22741
aI22751
aI22761
aI22771
aI22781
aI22791
aI22801
aI22811
aI22821
aI22831
aI22841
aI22851
aI22861
aI22871
aI22881
aI22891
aI22901
aI22911
aI22921
aI22931
aI22941
aI22951
aI22961
aI22971
aI22981
aI22991
aI23001
aI23011
aI23021
aI23031
aI23041
aI23051
aI23061
aI23071
aI23081
aI23091
aI23101
aI23111
aI23121
aI23131
aI23141
aI23151
aI23161
aI23171
aI23181
aI23191
aI23201
aI23211
aI23221
aI23231
aI23241
aI23251
aI23261
aI23271
aI23281
aI23291
aI23301
aI23311
aI23321
aI23331
aI23341
aI23351
aI23361
aI23371
aI23381
aI23391
aI23401
aI23411
aI23421
aI23431
aI23441
aI23451
aI23461
aI23471
aI23481
aI23491
aI23501
aI23511
aI23521
aI23531
aI23541
aI23551
aI23561
aI23571
aI23581
aI23591
aI23601
aI23611
aI23621
aI23631
aI23641
aI23651
aI23661
aI23671
aI23681
aI23691
aI23701
aI23711
aI23721
aI23731
aI23741
aI23751
aI23761
aI23771
aI23781
aI23791
aI23801
aI23811
aI23821
aI23831
aI23841
aI23851
aI23861
aI23871
aI23881
aI23891
aI23901
aI23911
aI23921
aI23931
aI23941
aI23951
aI23961
aI23971
aI23981
aI23991
aI24001
aI24011
aI24021
aI24031
aI24041
aI24051
aI24061
aI24071
aI24081
aI24091
aI24101
aI24111
aI24121
aI24131
aI24141
aI24151
aI24161
aI24171
aI24181
aI24191
aI24201
aI24211
aI24221
aI24231
aI24241
aI24251
aI24261
aI24271
aI24281
aI24291
aI24301
aI24311
aI24321
aI24331
aI24341
aI24351
aI24361
aI24371
aI24381
aI24391
aI24401
aI24411
aI24421
aI24431
aI24441
aI24451
aI24461
aI24471
aI24481
aI24491
aI24501
aI24511
aI24521
aI24531
aI24541
aI24551
aI24561
aI24571
aI24581
aI24591
aI24601
aI24611
aI24621
aI24631
aI24641
aI24651
aI24661
aI24671
aI24681
aI24691
aI24701
aI24711
aI24721
aI24731
aI24741
aI24751
aI24761
aI24771
aI24781
aI24791
aI24801
aI24811
aI24821
aI24831
aI24841
aI24851
aI24861
aI24871
aI24881
aI24891
aI24901
aI24911
aI24921
aI24931
aI24941
aI24951
aI24961
aI24971
aI24981
aI24991
aI25001
aI25011
aI25021
aI25031
aI25041
aI25051
aI25061
aI25071
aI25081
aI25091
aI25101
aI25111
aI25121
aI25131
aI25141
aI25151
aI25161
aI25171
aI25181
aI25191
aI25201
aI25211
aI25221
aI25231
aI25241
aI25251
aI25261
aI25271
aI25281
aI25291
aI25301
aI25311
aI25321
aI25331
aI25341
aI25351
aI25361
aI25371
aI25381
aI25391
aI25401
aI25411
aI25421
aI25431
aI25441
aI25451
aI25461
aI25471
aI25481
aI25491
aI25501
aI25511
aI25521
aI25531
aI25541
aI25551
aI25561
aI25571
aI25581
aI25591
aI25601
aI25611
aI25621
aI25631
aI25641
aI25651
aI25661
aI25671
aI25681
aI25691
aI25701
aI25711
aI25721
aI25731
aI25741
aI25751
aI25761
aI25771
aI25781
aI25791
aI25801
aI25811
aI25821
aI25831
aI25841
aI25851
aI25861
aI25871
aI25881
aI25891
aI25901
aI25911
aI25921
aI25931
aI25941
aI25951
aI25961
aI25971
aI25981
aI25991
aI26001
aI26011
aI26021
aI26031
aI26041
aI26051
aI26061
aI26071
aI26081
aI26091
aI26101
aI26111
aI26121
aI26131
aI26141
aI26151
aI26161
aI26171
aI26181
aI26191
aI26201
aI26211
aI26221
aI26231
aI26241
aI26251
aI26261
aI26271
aI26281
aI26291
aI26301
aI26311
aI26321
aI26331
aI26341
aI26351
aI26361
aI26371
aI26381
aI26391
aI26401
aI26411
aI26421
aI26431
aI26441
aI26451
aI26461
aI26471
aI26481
aI26491
aI26501
aI26511
aI26521
aI26531
aI26541
aI26551
aI26561
aI26571
aI26581
aI26591
aI26601
aI26611
aI26621
aI26631
aI26641
aI26651
aI26661
aI26671
aI26681
aI26691
aI26701
aI26711
aI26721
aI26731
aI26741
aI26751
aI26761
aI26771
aI26781
aI26791
aI26801
aI26811
aI26821
aI26831
aI26841
aI26851
aI26861
aI26871
aI26881
aI26891
aI26901
aI26911
aI26921
aI26931
aI26941
aI26951
aI26961
aI26971
aI26981
aI26991
aI27001
aI27011
aI27021
aI27031
aI27041
aI27051
aI27061
aI27071
aI27081
aI27091
aI27101
aI27111
aI27121
aI27131
aI27141
aI27151
aI27161
aI27171
aI27181
aI27191
aI27201
aI27211
aI27221
aI27231
aI27241
aI27251
aI27261
aI27271
aI27281
aI27291
aI27301
aI27311
aI27321
aI27331
aI27341
aI27351
aI27361
aI27371
aI27381
aI27391
aI27401
aI27411
aI27421
aI27431
aI27441
aI27451
aI27461
aI27471
aI27481
aI27491
aI27501
aI27511
aI27521
aI27531
aI27541
aI27551
aI27561
aI27571
aI27581
aI27591
aI27601
aI27611
aI27621
aI27631
aI27641
aI27651
aI27661
aI27671
aI27681
aI27691
aI27701
aI27711
aI27721
aI27731
aI27741
aI27751
aI27761
aI27771
aI27781
aI27791
aI27801
aI27811
aI27821
aI27831
aI27841
aI27851
aI27861
aI27871
aI27881
aI27891
aI27901
aI27911
aI27921
aI27931
aI27941
aI27951
aI27961
aI27971
aI27981
aI27991
aI28001
aI28011
aI28021
aI28031
aI28041
aI28051
aI28061
aI28071
aI28081
aI28091
aI28101
aI28111
aI28121
aI28131
aI28141
aI28151
aI28161
aI28171
aI28181
aI28191
aI28201
aI28211
aI28221
aI28231
aI28241
aI28251
aI28261
aI28271
aI28281
aI28291
aI28301
aI28311
aI28321
aI28331
aI28341
aI28351
aI28361
aI28371
aI28381
aI28391
aI28401
aI28411
aI28421
aI28431
aI28441
aI28451
aI28461
aI28471
aI28481
aI28491
aI28501
aI28511
aI28521
aI28531
aI28541
aI28551
aI28561
aI28571
aI28581
aI28591
aI28601
aI28611
aI28621
aI28631
aI28641
aI28651
aI28661
aI28671
aI28681
aI28691
aI28701
aI28711
aI28721
aI28731
aI28741
aI28751
aI28761
aI28771
aI28781
aI28791
aI28801
aI28811
aI28821
aI28831
aI28841
aI28851
aI28861
aI28871
aI28881
aI28891
aI28901
aI28911
aI28921
aI28931
aI28941
aI28951
aI28961
aI28971
aI28981
aI28991
aI29001
aI29011
aI29021
aI29031
aI29041
aI29051
aI29061
aI29071
aI29081
aI29091
aI29101
aI29111
aI29121
aI29131
aI29141
aI29151
aI29161
aI29171
aI29181
aI29191
aI29201
aI29211
aI29221
aI29231
aI29241
aI29251
aI29261
aI29271
aI29281
aI29291
aI29301
aI29311
aI29321
aI29331
aI29341
aI29351
aI29361
aI29371
aI29381
aI29391
aI29401
aI29411
aI29421
aI29431
aI29441
aI29451
aI29461
aI29471
aI29481
aI29491
aI29501
aI29511
aI29521
aI29531
aI29541
aI29551
aI29561
aI29571
aI29581
aI29591
aI29601
aI29611
aI29621
aI29631
aI29641
aI29651
aI29661
aI29671
aI29681
aI29691
aI29701
aI29711
aI29721
aI29731
aI29741
aI29751
aI29761
aI29771
aI29781
aI29791
aI29801
aI29811
aI29821
aI29831
aI29841
aI29851
aI29861
aI29871
aI29881
aI29891
aI29901
aI29911
aI29921
aI29931
aI29941
aI29951
aI29961
aI29971
aI29981
aI29991
aI30001
aI30011
aI30021
aI30031
aI30041
aI30051
aI30061
aI30071
aI30081
aI30091
aI30101
aI30111
aI30121
aI30131
aI30141
aI30151
aI30161
aI30171
aI30181
aI30191
aI30201
aI30211
aI30221
aI30231
aI30241
aI30251
aI30261
aI30271
aI30281
aI30291
aI30301
aI30311
aI30321
aI30331
aI30341
aI30351
aI30361
aI30371
aI30381
aI30391
aI30401
aI30411
aI30421
aI30431
aI30441
aI30451
aI30461
aI30471
aI30481
aI30491
aI30501
aI30511
aI30521
aI30531
aI30541
aI30551
aI30561
aI30571
aI30581
aI30591
aI30601
aI30611
aI30621
aI30631
aI30641
aI30651
aI30661
aI30671
aI30681
aI30691
aI30701
aI30711
aI30721
aI30731
aI30741
aI30751
aI30761
aI30771
aI30781
aI30791
aI30801
aI30811
aI30821
aI30831
aI30841
aI30851
aI30861
aI30871
aI30881
aI30891
aI30901
aI30911
aI30921
aI30931
aI30941
aI30951
aI30961
aI30971
aI30981
aI30991
aI31001
aI31011
aI31021
aI31031
aI31041
aI31051
aI31061
aI31071
aI31081
aI31091
aI31101
aI31111
aI31121
aI31131
aI31141
aI31151
aI31161
aI31171
aI31181
aI31191
aI31201
aI31211
aI31221
aI31231
aI31241
aI31251
aI31261
aI31271
aI31281
aI31291
aI31301
aI31311
aI31321
aI31331
aI31341
aI31351
aI31361
aI31371
aI31381
aI31391
aI31401
aI31411
aI31421
aI31431
aI31441
aI31451
aI31461
aI31471
aI31481
aI31491
aI31501
aI31511
aI31521
aI31531
aI31541
aI31551
aI31561
aI31571
aI31581
aI31591
aI31601
aI31611
aI31621
aI31631
aI31641
aI31651
aI31661
aI31671
aI31681
aI31691
aI31701
aI31711
aI31721
aI31731
aI31741
aI31751
aI31761
aI31771
aI31781
aI31791
aI31801
aI31811
aI31821
aI31831
aI31841
aI31851
aI31861
aI31871
aI31881
aI31891
aI31901
aI31911
aI31921
aI31931
aI31941
aI31951
aI31961
aI31971
aI31981
aI31991
aI32001
aI32011
aI32021
aI32031
aI32041
aI32051
aI32061
aI32071
aI32081
aI32091
aI32101
aI32111
aI32121
aI32131
aI32141
aI32151
aI32161
aI32171
aI32181
aI32191
aI32201
aI32211
aI32221
aI32231
aI32241
aI32251
aI32261
aI32271
aI32281
aI32291
aI32301
aI32311
aI32321
aI32331
aI32341
aI32351
aI32361
aI32371
aI32381
aI32391
aI32401
aI32411
aI32421
aI32431
aI32441
aI32451
aI32461
aI32471
aI32481
aI32491
aI32501
aI32511
aI32521
aI32531
aI32541
aI32551
aI32561
aI32571
aI32581
aI32591
aI32601
aI32611
aI32621
aI32631
aI32641
aI32651
aI32661
aI32671
aI32681
aI32691
aI32701
aI32711
aI32721
aI32731
aI32741
aI32751
aI32761
aI32771
aI32781
aI32791
aI32801
aI32811
aI32821
aI32831
aI32841
aI32851
aI32861
aI32871
aI32881
aI32891
aI32901
aI32911
aI32921
aI32931
aI32941
aI32951
aI32961
aI32971
aI32981
aI32991
aI33001
aI33011
aI33021
aI33031
aI33041
aI33051
aI33061
aI33071
aI33081
aI33091
aI33101
aI33111
aI33121
aI33131
aI33141
aI33151
aI33161
aI33171
aI33181
aI33191
aI33201
aI33211
aI33221
aI33231
aI33241
aI33251
aI33261
aI33271
aI33281
aI33291
aI33301
aI33311
aI33321
aI33331
aI33341
aI33351
aI33361
aI33371
aI33381
aI33391
aI33401
aI33411
aI33421
aI33431
aI33441
aI33451
aI33461
aI33471
aI33481
aI33491
aI33501
aI33511
aI33521
aI33531
aI33541
aI33551
aI33561
aI33571
aI33581
aI33591
aI33601
aI33611
aI33621
aI33631
aI33641
aI33651
aI33661
aI33671
aI33681
aI33691
aI33701
aI33711
aI33721
aI33731
aI33741
aI33751
aI33761
aI33771
aI33781
aI33791
aI33801
aI33811
aI33821
aI33831
aI33841
aI33851
aI33861
aI33871
aI33881
aI33891
aI33901
aI33911
aI33921
aI33931
aI33941
aI33951
aI33961
aI33971
aI33981
aI33991
aI34001
aI34011
aI34021
aI34031
aI34041
aI34051
aI34061
aI34071
aI34081
aI34091
aI34101
aI34111
aI34121
aI34131
aI34141
aI34151
aI34161
aI34171
aI34181
aI34191
aI34201
aI34211
aI34221
aI34231
aI34241
aI34251
aI34261
aI34271
aI34281
aI34291
aI34301
aI34311
aI34321
aI34331
aI34341
aI34351
aI34361
aI34371
aI34381
aI34391
aI34401
aI34411
aI34421
aI34431
aI34441
aI34451
aI34461
aI34471
aI34481
aI34491
aI34501
aI34511
aI34521
aI34531
aI34541
aI34551
aI34561
aI34571
aI34581
aI34591
aI34601
aI34611
aI34621
aI34631
aI34641
aI34651
aI34661
aI34671
aI34681
aI34691
aI34701
aI34711
aI34721
aI34731
aI34741
aI34751
aI34761
aI34771
aI34781
aI34791
aI34801
aI34811
aI34821
aI34831
aI34841
aI34851
aI34861
aI34871
aI34881
aI34891
aI34901
aI34911
aI34921
aI34931
aI34941
aI34951
aI34961
aI34971
aI34981
aI34991
aI35001
aI35011
aI35021
aI35031
aI35041
aI35051
aI35061
aI35071
aI35081
aI35091
aI35101
aI35111
aI35121
aI35131
aI35141
aI35151
aI35161
aI35171
aI35181
aI35191
aI35201
aI35211
aI35221
aI35231
aI35241
aI35251
aI35261
aI35271
aI35281
aI35291
aI35301
aI35311
aI35321
aI35331
aI35341
aI35351
aI35361
aI35371
aI35381
aI35391
aI35401
aI35411
aI35421
aI35431
aI35441
aI35451
aI35461
aI35471
aI35481
aI35491
aI35501
aI35511
aI35521
aI35531
aI35541
aI35551
aI35561
aI35571
aI35581
aI35591
aI35601
aI35611
aI35621
aI35631
aI35641
aI35651
aI35661
aI35671
aI35681
aI35691
aI35701
aI35711
aI35721
aI35731
aI35741
aI35751
aI35761
aI35771
aI35781
aI35791
aI35801
aI35811
aI35821
aI35831
aI35841
aI35851
aI35861
aI35871
aI35881
aI35891
aI35901
aI35911
aI35921
aI35931
aI35941
aI35951
aI35961
aI35971
aI35981
aI35991
aI36001
aI36011
aI36021
aI36031
aI36041
aI36051
aI36061
aI36071
aI36081
aI36091
aI36101
aI36111
aI36121
aI36131
aI36141
aI36151
aI36161
aI36171
aI36181
aI36191
aI36201
aI36211
aI36221
aI36231
aI36241
aI36251
aI36261
aI36271
aI36281
aI36291
aI36301
aI36311
aI36321
aI36331
aI36341
aI36351
aI36361
aI36371
aI36381
aI36391
aI36401
aI36411
aI36421
aI36431
aI36441
aI36451
aI36461
aI36471
aI36481
aI36491
aI36501
aI36511
aI36521
aI36531
aI36541
aI36551
aI36561
aI36571
aI36581
aI36591
aI36601
aI36611
aI36621
aI36631
aI36641
aI36651
aI36661
aI36671
aI36681
aI36691
aI36701
aI36711
aI36721
aI36731
aI36741
aI36751
aI36761
aI36771
aI36781
aI36791
aI36801
aI36811
aI36821
aI36831
aI36841
aI36851
aI36861
aI36871
aI36881
aI36891
aI36901
aI36911
aI36921
aI36931
aI36941
aI36951
aI36961
aI36971
aI36981
aI36991
aI37001
aI37011
aI37021
aI37031
aI37041
aI37051
aI37061
aI37071
aI37081
aI37091
aI37101
aI37111
aI37121
aI37131
aI37141
aI37151
aI37161
aI37171
aI37181
aI37191
aI37201
aI37211
aI37221
aI37231
aI37241
aI37251
aI37261
aI37271
aI37281
aI37291
aI37301
aI37311
aI37321
aI37331
aI37341
aI37351
aI37361
aI37371
aI37381
aI37391
aI37401
aI37411
aI37421
aI37431
aI37441
aI37451
aI37461
aI37471
aI37481
aI37491
aI37501
aI37511
aI37521
aI37531
aI37541
aI37551
aI37561
aI37571
aI37581
aI37591
aI37601
aI37611
aI37621
aI37631
aI37641
aI37651
aI37661
aI37671
aI37681
aI37691
aI37701
aI37711
aI37721
aI37731
aI37741
aI37751
aI37761
aI37771
aI37781
aI37791
aI37801
aI37811
aI37821
aI37831
aI37841
aI37851
aI37861
aI37871
aI37881
aI37891
aI37901
aI37911
aI37921
aI37931
aI37941
aI37951
aI37961
aI37971
aI37981
aI37991
aI38001
aI38011
aI38021
aI38031
aI38041
aI38051
aI38061
aI38071
aI38081
aI38091
aI38101
aI38111
aI38121
aI38131
aI38141
aI38151
aI38161
aI38171
aI38181
aI38191
aI38201
aI38211
aI38221
aI38231
aI38241
aI38251
aI38261
aI38271
aI38281
aI38291
aI38301
aI38311
aI38321
aI38331
aI38341
aI38351
aI38361
aI38371
aI38381
aI38391
aI38401
aI38411
aI38421
aI38431
aI38441
aI38451
aI38461
aI38471
aI38481
aI38491
aI38501
aI38511
aI38521
aI38531
aI38541
aI38551
aI38561
aI38571
aI38581
aI38591
aI38601
aI38611
aI38621
aI38631
aI38641
aI38651
aI38661
aI38671
aI38681
aI38691
aI38701
aI38711
aI38721
aI38731
aI38741
aI38751
aI38761
aI38771
aI38781
aI38791
aI38801
aI38811
aI38821
aI38831
aI38841
aI38851
aI38861
aI38871
aI38881
aI38891
aI38901
aI38911
aI38921
aI38931
aI38941
aI38951
aI38961
aI38971
aI38981
aI38991
aI39001
aI39011
aI39021
aI39031
aI39041
aI39051
aI39061
aI39071
aI39081
aI39091
aI39101
aI39111
aI39121
aI39131
aI39141
aI39151
aI39161
aI39171
aI39181
aI39191
aI39201
aI39211
aI39221
aI39231
aI39241
aI39251
aI39261
aI39271
aI39281
aI39291
aI39301
aI39311
aI39321
aI39331
aI39341
aI39351
aI39361
aI39371
aI39381
aI39391
aI39401
aI39411
aI39421
aI39431
aI39441
aI39451
aI39461
aI39471
aI39481
aI39491
aI39501
aI39511
aI39521
aI39531
aI39541
aI39551
aI39561
aI39571
aI39581
aI39591
aI39601
aI39611
aI39621
aI39631
aI39641
aI39651
aI39661
aI39671
aI39681
aI39691
aI39701
aI39711
aI39721
aI39731
aI39741
aI39751
aI39761
aI39771
aI39781
aI39791
aI39801
aI39811
aI39821
aI39831
aI39841
aI39851
aI39861
aI39871
aI39881
aI39891
aI39901
aI39911
aI39921
aI39931
aI39941
aI39951
aI39961
aI39971
aI39981
aI39991
aI40001
aI40011
aI40021
aI40031
aI40041
aI40051
aI40061
aI40071
aI40081
aI40091
aI40101
aI40111
aI40121
aI40131
aI40141
aI40151
aI40161
aI40171
aI40181
aI40191
aI40201
aI40211
aI40221
aI40231
aI40241
aI40251
aI40261
aI40271
aI40281
aI40291
aI40301
aI40311
aI40321
aI40331
aI40341
aI40351
aI40361
aI40371
aI40381
aI40391
aI40401
aI40411
aI40421
aI40431
aI40441
aI40451
aI40461
aI40471
aI40481
aI40491
aI40501
aI40511
aI40521
aI40531
aI40541
aI40551
aI40561
aI40571
aI40581
aI40591
aI40601
aI40611
aI40621
aI40631
aI40641
aI40651
aI40661
aI40671
aI40681
aI40691
aI40701
aI40711
aI40721
aI40731
aI40741
aI40751
aI40761
aI40771
aI40781
aI40791
aI40801
aI40811
aI40821
aI40831
aI40841
aI40851
aI40861
aI40871
aI40881
aI40891
aI40901
aI40911
aI40921
aI40931
aI40941
aI40951
aI40961
aI40971
aI40981
aI40991
aI41001
aI41011
aI41021
aI41031
aI41041
aI41051
aI41061
aI41071
aI41081
aI41091
aI41101
aI41111
aI41121
aI41131
aI41141
aI41151
aI41161
aI41171
aI41181
aI41191
aI41201
aI41211
aI41221
aI41231
aI41241
aI41251
aI41261
aI41271
aI41281
aI41291
aI41301
aI41311
aI41321
aI41331
aI41341
aI41351
aI41361
aI41371
aI41381
aI41391
aI41401
aI41411
aI41421
aI41431
aI41441
aI41451
aI41461
aI41471
aI41481
aI41491
aI41501
aI41511
aI41521
aI41531
aI41541
aI41551
aI41561
aI41571
aI41581
aI41591
aI41601
aI41611
aI41621
aI41631
aI41641
aI41651
aI41661
aI41671
aI41681
aI41691
aI41701
aI41711
aI41721
aI41731
aI41741
aI41751
aI41761
aI41771
aI41781
aI41791
aI41801
aI41811
aI41821
aI41831
aI41841
aI41851
aI41861
aI41871
aI41881
aI41891
aI41901
aI41911
aI41921
aI41931
aI41941
aI41951
aI41961
aI41971
aI41981
aI41991
aI42001
aI42011
aI42021
aI42031
aI42041
aI42051
aI42061
aI42071
aI42081
aI42091
aI42101
aI42111
aI42121
aI42131
aI42141
aI42151
aI42161
aI42171
aI42181
aI42191
aI42201
aI42211
aI42221
aI42231
aI42241
aI42251
aI42261
aI42271
aI42281
aI42291
aI42301
aI42311
aI42321
aI42331
aI42341
aI42351
aI42361
aI42371
aI42381
aI42391
aI42401
aI42411
aI42421
aI42431
aI42441
aI42451
aI42461
aI42471
aI42481
aI42491
aI42501
aI42511
aI42521
aI42531
aI42541
aI42551
aI42561
aI42571
aI42581
aI42591
aI42601
aI42611
aI42621
aI42631
aI42641
aI42651
aI42661
aI42671
aI42681
aI42691
aI42701
aI42711
aI42721
aI42731
aI42741
aI42751
aI42761
aI42771
aI42781
aI42791
aI42801
aI42811
aI42821
aI42831
aI42841
aI42851
aI42861
aI42871
aI42881
aI42891
aI42901
aI42911
aI42921
aI42931
aI42941
aI42951
aI42961
aI42971
aI42981
aI42991
aI43001
aI43011
aI43021
aI43031
aI43041
aI43051
aI43061
aI43071
aI43081
aI43091
aI43101
aI43111
aI43121
aI43131
aI43141
aI43151
aI43161
aI43171
aI43181
aI43191
aI43201
aI43211
aI43221
aI43231
aI43241
aI43251
aI43261
aI43271
aI43281
aI43291
aI43301
aI43311
aI43321
aI43331
aI43341
aI43351
aI43361
aI43371
aI43381
aI43391
aI43401
aI43411
aI43421
aI43431
aI43441
aI43451
aI43461
aI43471
aI43481
aI43491
aI43501
aI43511
aI43521
aI43531
aI43541
aI43551
aI43561
aI43571
aI43581
aI43591
aI43601
aI43611
aI43621
aI43631
aI43641
aI43651
aI43661
aI43671
aI43681
aI43691
aI43701
aI43711
aI43721
aI43731
aI43741
aI43751
aI43761
aI43771
aI43781
aI43791
aI43801
aI43811
aI43821
aI43831
aI43841
aI43851
aI43861
aI43871
aI43881
aI43891
aI43901
aI43911
aI43921
aI43931
aI43941
aI43951
aI43961
aI43971
aI43981
aI43991
aI44001
aI44011
aI44021
aI44031
aI44041
aI44051
aI44061
aI44071
aI44081
aI44091
aI44101
aI44111
aI44121
aI44131
aI44141
aI44151
aI44161
aI44171
aI44181
aI44191
aI44201
aI44211
aI44221
aI44231
aI44241
aI44251
aI44261
aI44271
aI44281
aI44291
aI44301
aI44311
aI44321
aI44331
aI44341
aI44351
aI44361
aI44371
aI44381
aI44391
aI44401
aI44411
aI44421
aI44431
aI44441
aI44451
aI44461
aI44471
aI44481
aI44491
aI44501
aI44511
aI44521
aI44531
aI44541
aI44551
aI44561
aI44571
aI44581
aI44591
aI44601
aI44611
aI44621
aI44631
aI44641
aI44651
aI44661
aI44671
aI44681
aI44691
aI44701
aI44711
aI44721
aI44731
aI44741
aI44751
aI44761
aI44771
aI44781
aI44791
aI44801
aI44811
aI44821
aI44831
aI44841
aI44851
aI44861
aI44871
aI44881
aI44891
aI44901
aI44911
aI44921
aI44931
aI44941
aI44951
aI44961
aI44971
aI44981
aI44991
aI45001
aI45011
aI45021
aI45031
aI45041
aI45051
aI45061
aI45071
aI45081
aI45091
aI45101
aI45111
aI45121
aI45131
aI45141
aI45151
aI45161
aI45171
aI45181
aI45191
aI45201
aI45211
aI45221
aI45231
aI45241
aI45251
aI45261
aI45271
aI45281
aI45291
aI45301
aI45311
aI45321
aI45331
aI45341
aI45351
aI45361
aI45371
aI45381
aI45391
aI45401
aI45411
aI45421
aI45431
aI45441
aI45451
aI45461
aI45471
aI45481
aI45491
aI45501
aI45511
aI45521
aI45531
aI45541
aI45551
aI45561
aI45571
aI45581
aI45591
aI45601
aI45611
aI45621
aI45631
aI45641
aI45651
aI45661
aI45671
aI45681
aI45691
aI45701
aI45711
aI45721
aI45731
aI45741
aI45751
aI45761
aI45771
aI45781
aI45791
aI45801
aI45811
aI45821
aI45831
aI45841
aI45851
aI45861
aI45871
aI45881
aI45891
aI45901
aI45911
aI45921
aI45931
aI45941
aI45951
aI45961
aI45971
aI45981
aI45991
aI46001
aI46011
aI46021
aI46031
aI46041
aI46051
aI46061
aI46071
aI46081
aI46091
aI46101
aI46111
aI46121
aI46131
aI46141
aI46151
aI46161
aI46171
aI46181
aI46191
aI46201
aI46211
aI46221
aI46231
aI46241
aI46251
aI46261
aI46271
aI46281
aI46291
aI46301
aI46311
aI46321
aI46331
aI46341
aI46351
aI46361
aI46371
aI46381
aI46391
aI46401
aI46411
aI46421
aI46431
aI46441
aI46451
aI46461
aI46471
aI46481
aI46491
aI46501
aI46511
aI46521
aI46531
aI46541
aI46551
aI46561
aI46571
aI46581
aI46591
aI46601
aI46611
aI46621
aI46631
aI46641
aI46651
aI46661
aI46671
aI46681
aI46691
aI46701
aI46711
aI46721
aI46731
aI46741
aI46751
aI46761
aI46771
aI46781
aI46791
aI46801
aI46811
aI46821
aI46831
aI46841
aI46851
aI46861
aI46871
aI46881
aI46891
asVhyperparams/batch_size
p11
(lp12
F64.0
aF64.0
aF64.0
aF64.0
aF64.0
aF64.0
aF64.0
aF64.0
aF64.0
aF64.0
aF64.0
aF64.0
aF64.0
aF64.0
aF64.0
aF64.0
aF64.0
aF64.0
aF64.0
aF64.0
aF64.0
aF64.0
aF64.0
aF64.0
aF64.0
aF64.0
aF64.0
aF64.0
aF64.0
aF64.0
aF64.0
aF64.0
aF64.0
aF64.0
aF64.0
aF64.0
aF64.0
aF64.0
aF64.0
aF64.0
aF64.0
aF64.0
aF64.0
aF64.0
aF64.0
aF64.0
aF64.0
aF64.0
aF64.0
aF64.0
aF64.0
asS'args'
p13
ccopy_reg
_reconstructor
p14
(cargparse
Namespace
p15
c__builtin__
object
p16
Ntp17
Rp18
(dp19
S'wd'
p20
NsS'data_dir'
p21
S'data'
p22
sS'nesterov'
p23
I00
sS'train_log_interval'
p24
I10
sS'nologs'
p25
I00
sS'num_epochs'
p26
I50
sS'lr_sched_epochs'
p27
NsS'saveto'
p28
S'res/benchmark_small_final/'
p29
sS'lr_sched_factors'
p30
NsS'mu'
p31
F0.99
sS'checkpoint_epochs'
p32
I1
sS'print_train_iter'
p33
I00
sS'lr'
p34
F1.584893e-05
sS'bs'
p35
I64
sS'pickle'
p36
I01
sS'random_seed'
p37
I42
sS'no_time'
p38
I00
sS'test_problem'
p39
S'mnist.mnist_vae'
p40
sS'run_name'
p41
S'Momentum/'
p42
sbsVtraining/training_loss
p43
(lp44
F180.95480346679688
aF180.79299926757812
aF180.83804321289062
aF181.0519256591797
aF181.36660766601562
aF179.4828643798828
aF178.3250732421875
aF176.28237915039062
aF172.17532348632812
aF160.01451110839844
aF131.7423858642578
aF77.45703125
aF59.6875
aF64.40200805664062
aF67.24534606933594
aF63.98489761352539
aF71.87017822265625
aF68.36985778808594
aF66.28111267089844
aF66.7083740234375
aF65.4674072265625
aF74.58609771728516
aF75.57698059082031
aF71.9221420288086
aF67.71908569335938
aF77.50392150878906
aF70.66754913330078
aF71.16680908203125
aF74.6541976928711
aF74.48487091064453
aF71.22438049316406
aF69.40751647949219
aF70.26458740234375
aF72.37120819091797
aF71.70924377441406
aF68.49424743652344
aF74.39999389648438
aF64.39309692382812
aF59.115142822265625
aF71.12710571289062
aF62.752567291259766
aF64.92597961425781
aF62.654823303222656
aF61.05530548095703
aF65.75994873046875
aF58.13786315917969
aF58.22052764892578
aF58.428993225097656
aF58.472747802734375
aF56.984092712402344
aF54.396507263183594
aF61.13904571533203
aF54.94249725341797
aF56.154327392578125
aF56.6505126953125
aF53.836997985839844
aF54.77657699584961
aF56.66685104370117
aF57.563934326171875
aF57.732093811035156
aF53.90882110595703
aF53.343597412109375
aF55.725982666015625
aF52.23667907714844
aF51.686790466308594
aF59.159210205078125
aF57.44663619995117
aF53.73450469970703
aF56.77691650390625
aF54.82579040527344
aF54.49534225463867
aF52.69473648071289
aF53.138404846191406
aF51.608306884765625
aF55.13582229614258
aF50.819496154785156
aF47.34849548339844
aF49.43904113769531
aF53.099281311035156
aF50.96350860595703
aF52.087242126464844
aF52.34782409667969
aF51.09645462036133
aF51.86635208129883
aF51.90203857421875
aF56.026519775390625
aF52.30795669555664
aF51.10371398925781
aF50.260337829589844
aF51.75218963623047
aF51.32429504394531
aF53.060184478759766
aF55.350730895996094
aF54.143516540527344
aF49.85795211791992
aF50.64537811279297
aF55.724365234375
aF51.467681884765625
aF52.597633361816406
aF57.97601318359375
aF53.19663619995117
aF53.46300506591797
aF47.921470642089844
aF50.16038131713867
aF54.50084686279297
aF52.47882080078125
aF53.245445251464844
aF52.00989532470703
aF52.535987854003906
aF53.45799255371094
aF52.89991760253906
aF56.9146614074707
aF52.637718200683594
aF53.53904724121094
aF53.419227600097656
aF51.680763244628906
aF49.21306610107422
aF55.47447967529297
aF51.49980163574219
aF53.40780258178711
aF53.29228973388672
aF52.84504699707031
aF52.68431854248047
aF52.83422088623047
aF51.684452056884766
aF52.413169860839844
aF51.592384338378906
aF51.457496643066406
aF50.16777801513672
aF49.311859130859375
aF54.48918914794922
aF51.70391082763672
aF52.356910705566406
aF50.76746368408203
aF51.18592834472656
aF56.93971252441406
aF52.04759216308594
aF52.63233184814453
aF50.174686431884766
aF53.730079650878906
aF52.480384826660156
aF54.67454528808594
aF54.72393035888672
aF54.94403839111328
aF54.433372497558594
aF51.009010314941406
aF50.276100158691406
aF52.368865966796875
aF52.7101936340332
aF50.69512939453125
aF50.88250732421875
aF54.863311767578125
aF49.798797607421875
aF53.81336975097656
aF54.87336730957031
aF50.74402618408203
aF53.778236389160156
aF52.91897201538086
aF51.65627670288086
aF50.912559509277344
aF50.56217575073242
aF51.74462890625
aF51.26774215698242
aF55.522796630859375
aF54.967445373535156
aF54.211570739746094
aF53.113243103027344
aF52.472412109375
aF50.629905700683594
aF52.862953186035156
aF51.23101043701172
aF53.41938018798828
aF52.14814758300781
aF53.03834533691406
aF50.188323974609375
aF49.70922088623047
aF54.593902587890625
aF53.12528991699219
aF52.64083480834961
aF53.31837463378906
aF55.29386901855469
aF51.081050872802734
aF52.969482421875
aF52.28521728515625
aF52.67089080810547
aF50.51634216308594
aF53.62434387207031
aF55.48974609375
aF52.855384826660156
aF52.928749084472656
aF50.87419891357422
aF53.624122619628906
aF51.36186981201172
aF52.69280242919922
aF55.62413787841797
aF55.8758430480957
aF53.352237701416016
aF52.5652961730957
aF53.53082275390625
aF55.0146598815918
aF52.284095764160156
aF53.580509185791016
aF55.848148345947266
aF52.01449203491211
aF52.270164489746094
aF50.931373596191406
aF55.143882751464844
aF53.69109344482422
aF55.53010559082031
aF55.63379669189453
aF54.80735397338867
aF57.04158020019531
aF53.350868225097656
aF54.8656005859375
aF51.40117645263672
aF52.94087600708008
aF52.97264862060547
aF52.846683502197266
aF52.90647888183594
aF51.746490478515625
aF52.682518005371094
aF48.49579620361328
aF54.23387145996094
aF53.701873779296875
aF50.65898895263672
aF53.940521240234375
aF54.7762336730957
aF51.77826690673828
aF54.209625244140625
aF53.084632873535156
aF51.844871520996094
aF53.15571594238281
aF52.48503875732422
aF54.565067291259766
aF52.79994201660156
aF52.7217903137207
aF52.819149017333984
aF53.86731719970703
aF52.003082275390625
aF54.693092346191406
aF53.76436233520508
aF55.399017333984375
aF54.98302459716797
aF51.70418167114258
aF52.702125549316406
aF48.616050720214844
aF50.994140625
aF49.83769226074219
aF56.220115661621094
aF54.59674072265625
aF55.98497009277344
aF49.526039123535156
aF52.886512756347656
aF52.76752853393555
aF56.502193450927734
aF50.36021423339844
aF51.99214172363281
aF52.78784942626953
aF48.422889709472656
aF52.85696792602539
aF54.152503967285156
aF51.06864929199219
aF53.74326705932617
aF53.873695373535156
aF54.01472854614258
aF53.425636291503906
aF53.024200439453125
aF54.59935760498047
aF50.44588088989258
aF51.668861389160156
aF52.183013916015625
aF51.51865005493164
aF51.78841018676758
aF51.233360290527344
aF49.568641662597656
aF52.0177116394043
aF54.80448913574219
aF49.12665557861328
aF56.07691955566406
aF51.747703552246094
aF53.51599884033203
aF50.54021453857422
aF55.57636260986328
aF50.225990295410156
aF52.6695671081543
aF51.778465270996094
aF51.115909576416016
aF52.296142578125
aF54.714019775390625
aF54.409019470214844
aF51.61028289794922
aF51.34342956542969
aF48.98990249633789
aF53.396484375
aF53.52112579345703
aF56.153663635253906
aF53.07222366333008
aF56.07334899902344
aF52.16290283203125
aF56.742183685302734
aF55.27874755859375
aF52.95336151123047
aF55.54975128173828
aF56.54102325439453
aF51.09214401245117
aF53.02949142456055
aF53.30720520019531
aF51.318336486816406
aF50.571632385253906
aF52.049068450927734
aF52.14771270751953
aF54.83251190185547
aF53.2919807434082
aF52.095947265625
aF53.70916748046875
aF55.16525650024414
aF52.95219039916992
aF52.197296142578125
aF53.42930221557617
aF51.34397888183594
aF56.62625503540039
aF54.427093505859375
aF50.736080169677734
aF51.17832565307617
aF54.095420837402344
aF54.41199493408203
aF50.53389358520508
aF52.031517028808594
aF49.847381591796875
aF56.34931564331055
aF54.295997619628906
aF51.29041290283203
aF54.90062713623047
aF52.759124755859375
aF54.71839904785156
aF50.01422119140625
aF51.75373840332031
aF51.75043869018555
aF51.43647003173828
aF53.689903259277344
aF53.75394821166992
aF57.258323669433594
aF55.347023010253906
aF51.75453186035156
aF52.09130096435547
aF50.95824432373047
aF53.109100341796875
aF52.49700164794922
aF53.05865478515625
aF53.634429931640625
aF53.60271453857422
aF52.12040328979492
aF50.90265655517578
aF52.1246337890625
aF54.240760803222656
aF52.635868072509766
aF54.55225372314453
aF52.18645477294922
aF53.434608459472656
aF54.89257049560547
aF49.259849548339844
aF54.12970733642578
aF51.17253875732422
aF52.434207916259766
aF51.78120040893555
aF52.16498565673828
aF54.296897888183594
aF53.46797561645508
aF50.57798767089844
aF54.89591979980469
aF52.274776458740234
aF54.57820129394531
aF50.089962005615234
aF51.753761291503906
aF54.17658233642578
aF55.313602447509766
aF53.605918884277344
aF51.87126541137695
aF51.78983688354492
aF51.653411865234375
aF53.311737060546875
aF52.423179626464844
aF52.312644958496094
aF54.98148727416992
aF54.205665588378906
aF51.916473388671875
aF56.000511169433594
aF56.14280700683594
aF50.79035949707031
aF56.84089660644531
aF53.13766098022461
aF55.386688232421875
aF52.374114990234375
aF53.2591552734375
aF55.74391174316406
aF52.29930114746094
aF51.68791961669922
aF52.09095001220703
aF54.76996612548828
aF53.764976501464844
aF51.50030517578125
aF50.650245666503906
aF54.33659362792969
aF50.800697326660156
aF54.457923889160156
aF52.142173767089844
aF54.195838928222656
aF57.85251235961914
aF50.26303482055664
aF53.61756134033203
aF51.599632263183594
aF53.706993103027344
aF55.99063491821289
aF54.65236282348633
aF51.35669708251953
aF50.00740051269531
aF51.80725860595703
aF51.641990661621094
aF55.359580993652344
aF50.86688995361328
aF54.97334671020508
aF50.455047607421875
aF50.865753173828125
aF53.83110046386719
aF51.97566604614258
aF50.74531555175781
aF51.96806335449219
aF51.42211151123047
aF52.645103454589844
aF51.77812957763672
aF52.007240295410156
aF52.83208465576172
aF58.3466796875
aF51.52277374267578
aF52.2579460144043
aF49.49583435058594
aF52.749542236328125
aF49.81378173828125
aF51.884918212890625
aF54.5143928527832
aF50.790164947509766
aF53.02070617675781
aF50.27141189575195
aF54.51478958129883
aF48.75746154785156
aF52.66649627685547
aF54.72114944458008
aF52.22673797607422
aF50.18102264404297
aF49.33495330810547
aF51.59259796142578
aF51.39948272705078
aF54.20216751098633
aF48.48724365234375
aF48.58283615112305
aF50.943397521972656
aF53.51948165893555
aF49.77918243408203
aF53.6826057434082
aF50.736724853515625
aF50.553436279296875
aF54.462608337402344
aF52.07877731323242
aF53.23114013671875
aF54.69388961791992
aF52.00208282470703
aF55.11347961425781
aF50.009002685546875
aF55.57695770263672
aF53.11283874511719
aF55.36275100708008
aF53.21067428588867
aF55.14542770385742
aF48.624576568603516
aF52.82232666015625
aF52.42420959472656
aF51.12969970703125
aF50.897613525390625
aF48.83137512207031
aF52.587852478027344
aF53.43071365356445
aF53.905601501464844
aF53.300392150878906
aF53.75257873535156
aF51.547611236572266
aF54.54572296142578
aF52.286376953125
aF50.458641052246094
aF50.87982940673828
aF49.81578826904297
aF53.66455841064453
aF54.25123977661133
aF52.013492584228516
aF49.25116729736328
aF54.756248474121094
aF51.621917724609375
aF51.47427749633789
aF53.13437271118164
aF54.06418228149414
aF52.0659294128418
aF51.10828399658203
aF52.18953323364258
aF53.9918098449707
aF53.302940368652344
aF52.28506851196289
aF55.0385856628418
aF49.808135986328125
aF48.074867248535156
aF55.08771896362305
aF50.212730407714844
aF53.316688537597656
aF51.942195892333984
aF51.938053131103516
aF56.06201934814453
aF51.539955139160156
aF51.64204788208008
aF52.51886749267578
aF52.74248123168945
aF52.654388427734375
aF50.01593017578125
aF55.96112823486328
aF51.40740203857422
aF53.076744079589844
aF53.82755661010742
aF51.430084228515625
aF52.62202835083008
aF54.907405853271484
aF55.83809280395508
aF55.59208679199219
aF52.008888244628906
aF51.573272705078125
aF54.261924743652344
aF50.884925842285156
aF50.710166931152344
aF57.83966827392578
aF56.117942810058594
aF52.82489776611328
aF55.77703857421875
aF53.937156677246094
aF53.66611099243164
aF52.05702209472656
aF52.52174758911133
aF51.020259857177734
aF54.670223236083984
aF50.33402633666992
aF46.9208984375
aF49.04508972167969
aF52.7989501953125
aF50.685096740722656
aF51.874176025390625
aF52.00593948364258
aF50.93073272705078
aF51.57686233520508
aF51.688262939453125
aF55.77365493774414
aF52.11429977416992
aF50.8775520324707
aF50.10363006591797
aF51.56761169433594
aF51.16038131713867
aF52.90384292602539
aF55.165340423583984
aF54.03080749511719
aF49.72212600708008
aF50.575340270996094
aF55.5259895324707
aF51.32713317871094
aF52.48656463623047
aF57.816200256347656
aF53.05992889404297
aF53.39955139160156
aF47.84586715698242
aF50.07952117919922
aF54.380558013916016
aF52.34544372558594
aF53.17606735229492
aF51.92915344238281
aF52.49064636230469
aF53.38255310058594
aF52.82975769042969
aF56.84900665283203
aF52.56265640258789
aF53.47542190551758
aF53.343544006347656
aF51.57477569580078
aF49.18843078613281
aF55.3695068359375
aF51.44037628173828
aF53.35808563232422
aF53.23611831665039
aF52.750186920166016
aF52.64955139160156
aF52.80597686767578
aF51.65595245361328
aF52.36172866821289
aF51.51827621459961
aF51.39967346191406
aF50.13616943359375
aF49.33438491821289
aF54.42159652709961
aF51.648406982421875
aF52.32053756713867
aF50.74937438964844
aF51.135128021240234
aF56.86555480957031
aF52.0261116027832
aF52.594581604003906
aF50.178382873535156
aF53.69781494140625
aF52.414424896240234
aF54.63743591308594
aF54.683021545410156
aF54.910911560058594
aF54.41173553466797
aF50.975677490234375
aF50.24749755859375
aF52.34123229980469
aF52.68409729003906
aF50.64793014526367
aF50.864295959472656
aF54.83234786987305
aF49.76089859008789
aF53.78216552734375
aF54.844154357910156
aF50.733253479003906
aF53.74407196044922
aF52.87549591064453
aF51.61286926269531
aF50.88803482055664
aF50.5550651550293
aF51.7186279296875
aF51.24044418334961
aF55.50841522216797
aF54.948055267333984
aF54.20002746582031
aF53.08973693847656
aF52.43457794189453
aF50.59332275390625
aF52.810951232910156
aF51.19349670410156
aF53.395511627197266
aF52.11860656738281
aF53.00230407714844
aF50.183982849121094
aF49.70335388183594
aF54.55495834350586
aF53.08734893798828
aF52.6287956237793
aF53.28733825683594
aF55.26456832885742
aF51.079105377197266
aF52.93562698364258
aF52.25865173339844
aF52.64493942260742
aF50.48585510253906
aF53.591773986816406
aF55.464073181152344
aF52.82585144042969
aF52.900489807128906
aF50.862213134765625
aF53.59466552734375
aF51.34428405761719
aF52.67200469970703
aF55.59934997558594
aF55.84461212158203
aF53.32795333862305
aF52.569923400878906
aF53.50386428833008
aF54.997413635253906
aF52.265174865722656
aF53.54656982421875
aF55.81523132324219
aF51.981834411621094
aF52.25414276123047
aF50.923622131347656
aF55.11322021484375
aF53.67700958251953
aF55.496517181396484
aF55.60921096801758
aF54.78038024902344
aF57.0209846496582
aF53.328887939453125
aF54.83558654785156
aF51.38994598388672
aF52.92790222167969
aF52.963897705078125
aF52.82698440551758
aF52.89460754394531
aF51.72136688232422
aF52.67106628417969
aF48.491092681884766
aF54.21337890625
aF53.67601776123047
aF50.65278625488281
aF53.918296813964844
aF54.746829986572266
aF51.767921447753906
aF54.18925857543945
aF53.06615447998047
aF51.81978988647461
aF53.13978576660156
aF52.47977828979492
aF54.54273986816406
aF52.780269622802734
aF52.70882034301758
aF52.80476379394531
aF53.84728240966797
aF51.984195709228516
aF54.67947769165039
aF53.75032043457031
aF55.37757110595703
aF54.97069549560547
aF51.692665100097656
aF52.68837356567383
aF48.59912109375
aF50.98246383666992
aF49.83058166503906
aF56.19883346557617
aF54.5784912109375
aF55.965457916259766
aF49.51914978027344
aF52.87193298339844
aF52.76409912109375
aF56.480499267578125
aF50.356658935546875
aF51.987220764160156
aF52.775421142578125
aF48.41696548461914
aF52.84217834472656
aF54.13880157470703
aF51.05314636230469
aF53.727561950683594
aF53.86524200439453
aF53.99569320678711
aF53.42137145996094
aF53.0055046081543
aF54.58823013305664
aF50.43861389160156
aF51.657169342041016
aF52.16724395751953
aF51.50628662109375
aF51.780242919921875
aF51.22533416748047
aF49.56394958496094
aF52.01228713989258
aF54.78138732910156
aF49.11968994140625
aF56.062591552734375
aF51.735694885253906
aF53.50428771972656
aF50.53791809082031
aF55.551048278808594
aF50.213226318359375
aF52.656429290771484
aF51.769439697265625
aF51.10982131958008
aF52.280479431152344
aF54.70232009887695
aF54.391849517822266
aF51.605133056640625
aF51.33369445800781
aF48.98879623413086
aF53.38533020019531
aF53.50904846191406
aF56.130958557128906
aF53.060096740722656
aF56.055381774902344
aF52.160888671875
aF56.723602294921875
aF55.26725769042969
aF52.93641662597656
aF55.536930084228516
aF56.52167510986328
aF51.08183288574219
aF53.02018737792969
aF53.296897888183594
aF51.30679702758789
aF50.55921173095703
aF52.041229248046875
aF52.14189147949219
aF54.81932830810547
aF53.27884292602539
aF52.09100341796875
aF53.699668884277344
aF55.149200439453125
aF52.93508529663086
aF52.19219970703125
aF53.415504455566406
aF51.335960388183594
aF56.61566925048828
aF54.41810607910156
aF50.7224235534668
aF51.170711517333984
aF54.09086608886719
aF54.396873474121094
aF50.52494812011719
aF52.021484375
aF49.841773986816406
aF56.336509704589844
aF54.29005432128906
aF51.278167724609375
aF54.88600158691406
aF52.751686096191406
aF54.705039978027344
aF50.003089904785156
aF51.74064636230469
aF51.74291229248047
aF51.436439514160156
aF53.6823616027832
aF53.7459831237793
aF57.24444580078125
aF55.34036636352539
aF51.74485397338867
aF52.087364196777344
aF50.95257568359375
aF53.0993766784668
aF52.48795700073242
aF53.054534912109375
aF53.623416900634766
aF53.59557342529297
aF52.11580276489258
aF50.9019775390625
aF52.1118049621582
aF54.23564910888672
aF52.6261100769043
aF54.542598724365234
aF52.18009567260742
aF53.42584228515625
aF54.887107849121094
aF49.254371643066406
aF54.12620544433594
aF51.16541290283203
aF52.42617416381836
aF51.770973205566406
aF52.160789489746094
aF54.292091369628906
aF53.45892333984375
aF50.573448181152344
aF54.88749694824219
aF52.26988220214844
aF54.57225036621094
aF50.08309555053711
aF51.74620819091797
aF54.168235778808594
aF55.30335235595703
aF53.605323791503906
aF51.86812973022461
aF51.783329010009766
aF51.649452209472656
aF53.30640411376953
aF52.4166259765625
aF52.30767059326172
aF54.9752197265625
aF54.19862365722656
aF51.912628173828125
aF55.9908447265625
aF56.13465881347656
aF50.785118103027344
aF56.83009338378906
aF53.135955810546875
aF55.38241195678711
aF52.368438720703125
aF53.2535285949707
aF55.735374450683594
aF52.28955078125
aF51.679359436035156
aF52.08351135253906
aF54.76219940185547
aF53.75872039794922
aF51.49443054199219
aF50.64788055419922
aF54.330265045166016
aF50.796722412109375
aF54.45056915283203
aF52.137542724609375
aF54.188987731933594
aF57.846832275390625
aF50.26112747192383
aF53.612239837646484
aF51.59417724609375
aF53.699947357177734
aF55.98090744018555
aF54.644798278808594
aF51.35148239135742
aF50.00563430786133
aF51.803924560546875
aF51.635459899902344
aF55.351654052734375
aF50.861541748046875
aF54.96718978881836
aF50.451576232910156
aF50.86186218261719
aF53.827972412109375
aF51.97006607055664
aF50.74253463745117
aF51.96098709106445
aF51.416019439697266
aF52.641761779785156
aF51.772056579589844
aF51.99876403808594
aF52.82701873779297
aF58.3403205871582
aF51.52116012573242
aF52.25336837768555
aF49.4904899597168
aF52.74542236328125
aF49.81043243408203
aF51.87963104248047
aF54.508766174316406
aF50.78705596923828
aF53.01475524902344
aF50.266876220703125
aF54.50787353515625
aF48.75395202636719
aF52.65907287597656
aF54.71629333496094
aF52.22403335571289
aF50.1795654296875
aF49.33296585083008
aF51.59025573730469
aF51.3964958190918
aF54.19316864013672
aF48.482261657714844
aF48.57866668701172
aF50.93874740600586
aF53.51398468017578
aF49.77710723876953
aF53.67473220825195
aF50.73358917236328
aF50.545936584472656
aF54.45589065551758
aF52.0751838684082
aF53.22468185424805
aF54.6895751953125
aF52.00188446044922
aF55.10968780517578
aF50.00558853149414
aF55.57115173339844
aF53.10960388183594
aF55.35679626464844
aF53.20515441894531
aF55.14028549194336
aF48.62134552001953
aF52.81743621826172
aF52.418907165527344
aF51.12692642211914
aF50.89118957519531
aF48.83001708984375
aF52.58275604248047
aF53.42390060424805
aF53.902687072753906
aF53.29601287841797
aF53.74567794799805
aF51.54330062866211
aF54.542510986328125
aF52.2795295715332
aF50.45606994628906
aF50.87803649902344
aF49.813011169433594
aF53.657806396484375
aF54.24836730957031
aF52.008052825927734
aF49.24441909790039
aF54.748924255371094
aF51.618438720703125
aF51.470802307128906
aF53.12891387939453
aF54.05864715576172
aF52.062965393066406
aF51.103580474853516
aF52.18408203125
aF53.983726501464844
aF53.299652099609375
aF52.28111267089844
aF55.035606384277344
aF49.80549621582031
aF48.07017517089844
aF55.085872650146484
aF50.20993423461914
aF53.315670013427734
aF51.93598556518555
aF51.93303680419922
aF56.05754089355469
aF51.53302764892578
aF51.636322021484375
aF52.514190673828125
aF52.739173889160156
aF52.651119232177734
aF50.01150894165039
aF55.957489013671875
aF51.407012939453125
aF53.07305145263672
aF53.82277297973633
aF51.427268981933594
aF52.618167877197266
aF54.902984619140625
aF55.83091735839844
aF55.58496856689453
aF52.005096435546875
aF51.56958770751953
aF54.25855255126953
aF50.881622314453125
aF50.70664978027344
aF57.834129333496094
aF56.113616943359375
aF52.82029724121094
aF55.773834228515625
aF53.930755615234375
aF53.659664154052734
aF52.0544548034668
aF52.519142150878906
aF51.01924133300781
aF54.666603088378906
aF50.33298110961914
aF46.918968200683594
aF49.04578399658203
aF52.7937126159668
aF50.68149185180664
aF51.8719596862793
aF52.00484848022461
aF50.92664337158203
aF51.57374572753906
aF51.68103790283203
aF55.76819610595703
aF52.10675048828125
aF50.87421798706055
aF50.10094451904297
aF51.56712341308594
aF51.15690612792969
aF52.899166107177734
aF55.16139602661133
aF54.0260009765625
aF49.722042083740234
aF50.57558822631836
aF55.52545166015625
aF51.325321197509766
aF52.48333740234375
aF57.80939865112305
aF53.05726623535156
aF53.39588928222656
aF47.84238052368164
aF50.07817840576172
aF54.37635040283203
aF52.34498977661133
aF53.174320220947266
aF51.92631912231445
aF52.4825439453125
aF53.37885665893555
aF52.826351165771484
aF56.842308044433594
aF52.5620002746582
aF53.471405029296875
aF53.33924102783203
aF51.576541900634766
aF49.18564987182617
aF55.36875534057617
aF51.435821533203125
aF53.35268020629883
aF53.234745025634766
aF52.74913787841797
aF52.646156311035156
aF52.80120086669922
aF51.652584075927734
aF52.35790252685547
aF51.517662048339844
aF51.399864196777344
aF50.134395599365234
aF49.32925796508789
aF54.41765213012695
aF51.6448860168457
aF52.31954574584961
aF50.745452880859375
aF51.13425064086914
aF56.8580207824707
aF52.022483825683594
aF52.59058380126953
aF50.175331115722656
aF53.69743347167969
aF52.416236877441406
aF54.63471221923828
aF54.67937088012695
aF54.906471252441406
aF54.40625
aF50.97364807128906
aF50.24507141113281
aF52.342567443847656
aF52.6805419921875
aF50.64778137207031
aF50.85832595825195
aF54.82996368408203
aF49.76093673706055
aF53.77916717529297
aF54.84080505371094
aF50.72905731201172
aF53.74284362792969
aF52.8750114440918
aF51.61256408691406
aF50.88574981689453
aF50.551612854003906
aF51.71556091308594
aF51.23701477050781
aF55.50062561035156
aF54.94063186645508
aF54.19641876220703
aF53.084564208984375
aF52.4322395324707
aF50.59346008300781
aF52.81311798095703
aF51.19327926635742
aF53.392948150634766
aF52.11480712890625
aF53.000099182128906
aF50.18007278442383
aF49.69927978515625
aF54.55229949951172
aF53.087406158447266
aF52.62277603149414
aF53.28619384765625
aF55.25848388671875
aF51.072452545166016
aF52.93574523925781
aF52.259674072265625
aF52.64439392089844
aF50.485618591308594
aF53.58816146850586
aF55.457664489746094
aF52.825016021728516
aF52.89812469482422
aF50.855804443359375
aF53.593536376953125
aF51.341583251953125
aF52.66905975341797
aF55.594417572021484
aF55.837806701660156
aF53.32762145996094
aF52.560672760009766
aF53.501617431640625
aF54.98914337158203
aF52.262062072753906
aF53.54589080810547
aF55.812255859375
aF51.98339080810547
aF52.25151443481445
aF50.91788101196289
aF55.11067581176758
aF53.671966552734375
aF55.49324417114258
aF55.60386657714844
aF54.77664566040039
aF57.01422119140625
aF53.32476806640625
aF54.835205078125
aF51.38548278808594
aF52.92412185668945
aF52.961822509765625
aF52.82426071166992
aF52.89101028442383
aF51.7227897644043
aF52.66362762451172
aF48.49053955078125
aF54.21131134033203
aF53.67493438720703
aF50.649208068847656
aF53.91315460205078
aF54.745819091796875
aF51.763572692871094
aF54.18657684326172
aF53.062225341796875
aF51.81890869140625
aF53.13741683959961
aF52.47570037841797
aF54.540374755859375
aF52.777252197265625
aF52.70853805541992
aF52.80139923095703
aF53.84571838378906
aF51.97813415527344
aF54.67780685424805
aF53.7484130859375
aF55.37584686279297
aF54.96605682373047
aF51.689796447753906
aF52.684303283691406
aF48.597049713134766
aF50.979251861572266
aF49.82923889160156
aF56.196876525878906
aF54.576271057128906
aF55.9635009765625
aF49.51741027832031
aF52.87177276611328
aF52.763153076171875
aF56.47759246826172
aF50.352779388427734
aF51.981956481933594
aF52.77216720581055
aF48.41663360595703
aF52.84108352661133
aF54.1367301940918
aF51.0554084777832
aF53.72526550292969
aF53.8585205078125
aF53.99208068847656
aF53.41521072387695
aF53.00392150878906
aF54.58344650268555
aF50.4345817565918
aF51.657127380371094
aF52.16584014892578
aF51.501434326171875
aF51.778324127197266
aF51.220848083496094
aF49.560401916503906
aF52.006412506103516
aF54.78501510620117
aF49.117919921875
aF56.05912399291992
aF51.73410415649414
aF53.49946594238281
aF50.535621643066406
aF55.55470657348633
aF50.21669387817383
aF52.65460968017578
aF51.766624450683594
aF51.10512924194336
aF52.27988815307617
aF54.697235107421875
aF54.390289306640625
aF51.60059356689453
aF51.33082962036133
aF48.983028411865234
aF53.38483428955078
aF53.50669479370117
aF56.1359977722168
aF53.06169128417969
aF56.05342483520508
aF52.1521110534668
aF56.72256851196289
aF55.26354217529297
aF52.93559265136719
aF55.53318786621094
aF56.518409729003906
aF51.08240509033203
aF53.012935638427734
aF53.291412353515625
aF51.30927276611328
aF50.561614990234375
aF52.03575897216797
aF52.13923645019531
aF54.82059097290039
aF53.28008270263672
aF52.08783721923828
aF53.6988525390625
aF55.14909362792969
aF52.938697814941406
aF52.18492889404297
aF53.41236877441406
aF51.33081817626953
aF56.61082077026367
aF54.417266845703125
aF50.72611618041992
aF51.16919708251953
aF54.08405685424805
aF54.40019989013672
aF50.5246467590332
aF52.024993896484375
aF49.838043212890625
aF56.3341178894043
aF54.28535461425781
aF51.279083251953125
aF54.884220123291016
aF52.745887756347656
aF54.70576477050781
aF50.00912857055664
aF51.74288558959961
aF51.741844177246094
aF51.43016052246094
aF53.682350158691406
aF53.73896026611328
aF57.24241256713867
aF55.33708953857422
aF51.741851806640625
aF52.08130645751953
aF50.95048904418945
aF53.09622573852539
aF52.48775100708008
aF53.0511474609375
aF53.620662689208984
aF53.58902359008789
aF52.113800048828125
aF50.89342498779297
aF52.111671447753906
aF54.230159759521484
aF52.62580490112305
aF54.540618896484375
aF52.176918029785156
aF53.42136001586914
aF54.88130187988281
aF49.25227355957031
aF54.12388610839844
aF51.16690444946289
aF52.42645263671875
aF51.76911163330078
aF52.151126861572266
aF54.28996276855469
aF53.45716857910156
aF50.57476043701172
aF54.885135650634766
aF52.269081115722656
aF54.566246032714844
aF50.076698303222656
aF51.745811462402344
aF54.16645050048828
aF55.299713134765625
aF53.598304748535156
aF51.861045837402344
aF51.784481048583984
aF51.64945983886719
aF53.301170349121094
aF52.41740798950195
aF52.303306579589844
aF54.97172546386719
aF54.198551177978516
aF51.91154861450195
aF55.98647689819336
aF56.12831497192383
aF50.78494644165039
aF56.83586883544922
aF53.129188537597656
aF55.376670837402344
aF52.36317825317383
aF53.24547576904297
aF55.73401641845703
aF52.290645599365234
aF51.68069839477539
aF52.0836296081543
aF54.75847625732422
aF53.757286071777344
aF51.50025177001953
aF50.64461898803711
aF54.32319641113281
aF50.79595947265625
aF54.45032501220703
aF52.137184143066406
aF54.18860626220703
aF57.842384338378906
aF50.2540397644043
aF53.608577728271484
aF51.592464447021484
aF53.68931198120117
aF55.98038864135742
aF54.644195556640625
aF51.351497650146484
aF50.005409240722656
aF51.80406188964844
aF51.6380729675293
aF55.355979919433594
aF50.86000061035156
aF54.96194076538086
aF50.4461784362793
aF50.852561950683594
aF53.82579040527344
aF51.971343994140625
aF50.74410629272461
aF51.95966339111328
aF51.413021087646484
aF52.64090347290039
aF51.771888732910156
aF51.99689483642578
aF52.82439422607422
aF58.333648681640625
aF51.51774597167969
aF52.25095748901367
aF49.48526382446289
aF52.744571685791016
aF49.8058967590332
aF51.87663650512695
aF54.50929260253906
aF50.78543472290039
aF53.01445770263672
aF50.266075134277344
aF54.509971618652344
aF48.7551383972168
aF52.65374755859375
aF54.70981216430664
aF52.218685150146484
aF50.174476623535156
aF49.330596923828125
aF51.59017562866211
aF51.386932373046875
aF54.1900634765625
aF48.4852294921875
aF48.57886505126953
aF50.937721252441406
aF53.510032653808594
aF49.77317810058594
aF53.67632293701172
aF50.73008728027344
aF50.532615661621094
aF54.45481872558594
aF52.06879425048828
aF53.225196838378906
aF54.68699645996094
aF52.00087356567383
aF55.11067581176758
aF50.00199890136719
aF55.5711784362793
aF53.105072021484375
aF55.35688018798828
aF53.200347900390625
aF55.13740921020508
aF48.61668395996094
aF52.81537628173828
aF52.41778564453125
aF51.12651824951172
aF50.89460754394531
aF48.8277587890625
aF52.581504821777344
aF53.429866790771484
aF53.90185546875
aF53.2907829284668
aF53.74524688720703
aF51.530853271484375
aF54.54423904418945
aF52.27330780029297
aF50.45720291137695
aF50.87559509277344
aF49.81085968017578
aF53.662132263183594
aF54.248661041259766
aF52.00665283203125
aF49.23804473876953
aF54.750762939453125
aF51.62003707885742
aF51.467796325683594
aF53.12459182739258
aF54.051780700683594
aF52.065208435058594
aF51.101722717285156
aF52.184043884277344
aF53.98179626464844
aF53.29812240600586
aF52.27186584472656
aF55.03449249267578
aF49.800926208496094
aF48.063934326171875
aF55.08110809326172
aF50.2115592956543
aF53.318084716796875
aF51.93019104003906
aF51.929771423339844
aF56.051109313964844
aF51.5264892578125
aF51.63016128540039
aF52.51335144042969
aF52.731597900390625
aF52.64698028564453
aF50.003517150878906
aF55.95075988769531
aF51.40312957763672
aF53.071434020996094
aF53.817535400390625
aF51.42767333984375
aF52.615177154541016
aF54.90138244628906
aF55.82402420043945
aF55.579986572265625
aF52.00328063964844
aF51.568504333496094
aF54.25735855102539
aF50.879215240478516
aF50.69829559326172
aF57.83025360107422
aF56.11276626586914
aF52.82086181640625
aF55.77622604370117
aF53.92322540283203
aF53.65627670288086
aF52.050323486328125
aF52.51731491088867
aF51.01786804199219
aF54.6647834777832
aF50.33775329589844
aF46.919612884521484
aF49.05348205566406
aF52.78845977783203
aF50.67658996582031
aF51.869407653808594
aF52.00738525390625
aF50.924171447753906
aF51.572139739990234
aF51.67613220214844
aF55.76866149902344
aF52.10325241088867
aF50.873741149902344
aF50.096771240234375
aF51.56623458862305
aF51.15519332885742
aF52.898338317871094
aF55.16047668457031
aF54.02325439453125
aF49.7177848815918
aF50.57603454589844
aF55.527191162109375
aF51.32605743408203
aF52.48051834106445
aF57.8069953918457
aF53.063201904296875
aF53.39185333251953
aF47.84209060668945
aF50.077980041503906
aF54.37152862548828
aF52.348304748535156
aF53.175270080566406
aF51.92802429199219
aF52.47446060180664
aF53.373748779296875
aF52.827816009521484
aF56.83313751220703
aF52.561981201171875
aF53.4683837890625
aF53.33726501464844
aF51.583168029785156
aF49.180702209472656
aF55.37269592285156
aF51.436767578125
aF53.34774398803711
aF53.232330322265625
aF52.754554748535156
aF52.64179992675781
aF52.79376983642578
aF51.64939498901367
aF52.35722351074219
aF51.520938873291016
aF51.4040641784668
aF50.13336181640625
aF49.32249069213867
aF54.41583251953125
aF51.6431999206543
aF52.320648193359375
aF50.741432189941406
aF51.13717269897461
aF56.85276794433594
aF52.01723861694336
aF52.588134765625
aF50.169960021972656
aF53.69639587402344
aF52.41876220703125
aF54.631587982177734
aF54.67677307128906
aF54.9022102355957
aF54.399497985839844
aF50.971580505371094
aF50.245216369628906
aF52.340213775634766
aF52.676239013671875
aF50.6504020690918
aF50.8516731262207
aF54.826683044433594
aF49.76179885864258
aF53.778785705566406
aF54.835758209228516
aF50.72723388671875
aF53.74129104614258
aF52.87867736816406
aF51.61593246459961
aF50.88043212890625
aF50.54838943481445
aF51.71491622924805
aF51.23468780517578
aF55.49008560180664
aF54.93204879760742
aF54.19050216674805
aF53.083885192871094
aF52.43330001831055
aF50.59888458251953
aF52.82059860229492
aF51.19395446777344
aF53.38826370239258
aF52.11730194091797
aF53.00215530395508
aF50.17620849609375
aF49.6923942565918
aF54.55426788330078
aF53.090187072753906
aF52.617679595947266
aF53.284217834472656
aF55.254310607910156
aF51.062034606933594
aF52.935211181640625
aF52.26053237915039
aF52.6445198059082
aF50.48765563964844
aF53.589698791503906
aF55.455055236816406
aF52.82388687133789
aF52.89931869506836
aF50.851661682128906
aF53.597740173339844
aF51.341590881347656
aF52.66759490966797
aF55.58856964111328
aF55.83612823486328
aF53.327972412109375
aF52.551658630371094
aF53.50291442871094
aF54.98271942138672
aF52.26253890991211
aF53.5512809753418
aF55.814212799072266
aF51.98754119873047
aF52.25111389160156
aF50.91355514526367
aF55.111263275146484
aF53.668846130371094
aF55.49085235595703
aF55.59923553466797
aF54.77140808105469
aF57.00663757324219
aF53.32484436035156
aF54.836585998535156
aF51.381927490234375
aF52.92139434814453
aF52.95808792114258
aF52.82147216796875
aF52.88873291015625
aF51.723201751708984
aF52.65666198730469
aF48.487525939941406
aF54.20804977416992
aF53.67319107055664
aF50.64567565917969
aF53.91246032714844
aF54.74678421020508
aF51.760498046875
aF54.18669128417969
aF53.06071853637695
aF51.82172775268555
aF53.134178161621094
aF52.473167419433594
aF54.54200744628906
aF52.775211334228516
aF52.70688247680664
aF52.79949951171875
aF53.84453582763672
aF51.97515869140625
aF54.679447174072266
aF53.74747085571289
aF55.37588119506836
aF54.961891174316406
aF51.68850326538086
aF52.684730529785156
aF48.5989990234375
aF50.980224609375
aF49.826168060302734
aF56.194313049316406
aF54.57418441772461
aF55.96434783935547
aF49.51516342163086
aF52.87202453613281
aF52.758880615234375
aF56.476295471191406
aF50.34618377685547
aF51.97409439086914
aF52.76892852783203
aF48.415130615234375
aF52.84050750732422
aF54.13817596435547
aF51.05897521972656
aF53.72468566894531
aF53.85218048095703
aF53.992164611816406
aF53.407108306884766
aF53.00457000732422
aF54.580657958984375
aF50.42936706542969
aF51.65741729736328
aF52.16850662231445
aF51.49639129638672
aF51.777183532714844
aF51.216590881347656
aF49.55624771118164
aF51.998714447021484
aF54.79025650024414
aF49.114402770996094
aF56.05786895751953
aF51.73143768310547
aF53.49489974975586
aF50.5356559753418
aF55.56062316894531
aF50.221187591552734
aF52.65411376953125
aF51.762325286865234
aF51.102081298828125
aF52.281829833984375
aF54.69268798828125
aF54.3897705078125
aF51.59522247314453
aF51.333770751953125
aF48.978118896484375
aF53.38306427001953
aF53.50334930419922
aF56.14212417602539
aF53.062950134277344
aF56.05683898925781
aF52.14012145996094
aF56.7252197265625
aF55.26145553588867
aF52.93611145019531
aF55.532676696777344
aF56.52061462402344
aF51.0811653137207
aF53.005210876464844
aF53.28717041015625
aF51.31367492675781
aF50.56541061401367
aF52.03160095214844
aF52.13695526123047
aF54.821250915527344
aF53.28289031982422
aF52.086795806884766
aF53.69969177246094
aF55.1525764465332
aF52.941226959228516
aF52.173980712890625
aF53.409889221191406
aF51.32685089111328
aF56.60589599609375
aF54.41841125488281
aF50.72843933105469
aF51.16802215576172
aF54.07745361328125
aF54.40663528442383
aF50.523284912109375
aF52.02708435058594
aF49.83540344238281
aF56.33039855957031
aF54.27973556518555
aF51.27793502807617
aF54.88429260253906
aF52.73735809326172
aF54.705772399902344
aF50.01087188720703
aF51.74515151977539
aF51.74204635620117
aF51.4247932434082
aF53.681114196777344
aF53.735313415527344
aF57.24477767944336
aF55.335052490234375
aF51.73922348022461
aF52.07268142700195
aF50.94895935058594
aF53.094905853271484
aF52.48662567138672
aF53.04426574707031
aF53.622344970703125
aF53.58307647705078
aF52.108436584472656
aF50.88713836669922
aF52.110416412353516
aF54.22687530517578
aF52.62372589111328
aF54.535736083984375
aF52.174095153808594
aF53.41352462768555
aF54.87725830078125
aF49.253631591796875
aF54.1221923828125
aF51.16291427612305
aF52.42438507080078
aF51.7647590637207
aF52.142215728759766
aF54.289276123046875
aF53.4585075378418
aF50.57695770263672
aF54.883087158203125
aF52.26826858520508
aF54.561927795410156
aF50.06879425048828
aF51.743167877197266
aF54.16767883300781
aF55.297115325927734
aF53.59415054321289
aF51.855342864990234
aF51.784751892089844
aF51.65088653564453
aF53.29694366455078
aF52.41918182373047
aF52.300228118896484
aF54.96746826171875
aF54.20039367675781
aF51.90989685058594
aF55.98104476928711
aF56.125152587890625
aF50.78458023071289
aF56.84413146972656
aF53.12382888793945
aF55.37022399902344
aF52.35923767089844
aF53.2360725402832
aF55.73412322998047
aF52.29100036621094
aF51.680484771728516
aF52.084964752197266
aF54.756160736083984
aF53.75599670410156
aF51.50554656982422
aF50.64284133911133
aF54.319923400878906
aF50.79487609863281
aF54.4508171081543
aF52.13777542114258
aF54.18935012817383
aF57.83992385864258
aF50.24851989746094
aF53.60492706298828
aF51.594173431396484
aF53.680152893066406
aF55.97904586791992
aF54.64363479614258
aF51.35074996948242
aF50.005470275878906
aF51.801483154296875
aF51.63886260986328
aF55.36206817626953
aF50.862060546875
aF54.95842742919922
aF50.443687438964844
aF50.843353271484375
aF53.822349548339844
aF51.97256088256836
aF50.74498748779297
aF51.95925521850586
aF51.40970993041992
aF52.64067077636719
aF51.771240234375
aF51.993408203125
aF52.82099151611328
aF58.330169677734375
aF51.51544952392578
aF52.24665069580078
aF49.478355407714844
aF52.739810943603516
aF49.79866027832031
aF51.87443542480469
aF54.50981140136719
aF50.783119201660156
aF53.01459884643555
aF50.2678337097168
aF54.51380920410156
aF48.75633239746094
aF52.648651123046875
aF54.70537185668945
aF52.21128463745117
aF50.16913604736328
aF49.32960510253906
aF51.59415054321289
aF51.37800216674805
aF54.187889099121094
aF48.48933792114258
aF48.57992935180664
aF50.93605041503906
aF53.5086555480957
aF49.77075958251953
aF53.67930603027344
aF50.73048400878906
aF50.51847839355469
aF54.4565315246582
aF52.061927795410156
aF53.22736358642578
aF54.68550109863281
aF52.001678466796875
aF55.112586975097656
aF50.00391387939453
aF55.571250915527344
aF53.10010528564453
aF55.359169006347656
aF53.19948196411133
aF55.134613037109375
aF48.61289978027344
aF52.810665130615234
aF52.414222717285156
aF51.12606430053711
aF50.89746856689453
aF48.8261604309082
aF52.580718994140625
aF53.43732833862305
aF53.90144348144531
aF53.28438186645508
aF53.748138427734375
aF51.52005386352539
aF54.548065185546875
aF52.265350341796875
aF50.45954895019531
aF50.87311553955078
aF49.8105354309082
aF53.66436004638672
aF54.250083923339844
aF52.00503158569336
aF49.23154830932617
aF54.75434875488281
aF51.61840057373047
aF51.465850830078125
aF53.12328338623047
aF54.05096435546875
aF52.06676483154297
aF51.100006103515625
aF52.183349609375
aF53.97874069213867
aF53.29800033569336
aF52.26338577270508
aF55.03337478637695
aF49.79775619506836
aF48.056243896484375
aF55.078468322753906
aF50.20998001098633
aF53.32048416137695
aF51.922996520996094
aF51.92711639404297
aF56.04439163208008
aF51.52307891845703
aF51.62473678588867
aF52.51408004760742
aF52.72248077392578
aF52.64514923095703
aF49.994964599609375
aF55.944366455078125
aF51.40110778808594
aF53.07293701171875
aF53.81291961669922
aF51.42953872680664
aF52.61079025268555
aF54.90148162841797
aF55.817718505859375
aF55.575687408447266
aF52.00433349609375
aF51.56559753417969
aF54.25774383544922
aF50.87483215332031
aF50.6915283203125
aF57.824344635009766
aF56.11585998535156
aF52.820343017578125
aF55.780155181884766
aF53.915191650390625
aF53.65210723876953
aF52.04667663574219
aF52.51598358154297
aF51.01968765258789
aF54.66351318359375
aF50.34577178955078
aF46.92009735107422
aF49.060508728027344
aF52.78186798095703
aF50.67087936401367
aF51.866455078125
aF52.01127243041992
aF50.92022705078125
aF51.572654724121094
aF51.671119689941406
aF55.770118713378906
aF52.098697662353516
aF50.874176025390625
aF50.094329833984375
aF51.568145751953125
aF51.154296875
aF52.89754867553711
aF55.15909957885742
aF54.01810836791992
aF49.717613220214844
aF50.576744079589844
aF55.52985382080078
aF51.32825469970703
aF52.47878646850586
aF57.80329895019531
aF53.07036590576172
aF53.38871765136719
aF47.841819763183594
aF50.07879638671875
aF54.37261199951172
aF52.34949493408203
aF53.177188873291016
aF51.928916931152344
aF52.46659851074219
aF53.36787414550781
aF52.82566833496094
aF56.82529830932617
aF52.56201934814453
aF53.46664047241211
aF53.334205627441406
aF51.590721130371094
aF49.173988342285156
aF55.37682342529297
aF51.435386657714844
aF53.34056091308594
aF53.22840118408203
aF52.75770950317383
aF52.6338005065918
aF52.78678512573242
aF51.647037506103516
aF52.35553741455078
aF51.525672912597656
aF51.40715026855469
aF50.13190460205078
aF49.315616607666016
aF54.4158935546875
aF51.64265441894531
aF52.320655822753906
aF50.736907958984375
aF51.13797378540039
aF56.849369049072266
aF52.01372528076172
aF52.5870246887207
aF50.16520690917969
aF53.697628021240234
aF52.42157745361328
aF54.629173278808594
aF54.6766242980957
aF54.89653396606445
aF54.3937873840332
aF50.971588134765625
aF50.246376037597656
aF52.34202194213867
aF52.6717643737793
aF50.653526306152344
aF50.848480224609375
aF54.82368469238281
aF49.76256561279297
aF53.77527618408203
aF54.832244873046875
aF50.723731994628906
aF53.74066925048828
aF52.88195037841797
aF51.619049072265625
aF50.87953186035156
aF50.544334411621094
aF51.71479797363281
aF51.23347473144531
aF55.480751037597656
aF54.9235725402832
aF54.18339157104492
aF53.082244873046875
aF52.43520736694336
aF50.60475158691406
aF52.828460693359375
aF51.19740295410156
aF53.38262176513672
aF52.12017822265625
aF53.003177642822266
aF50.170936584472656
aF49.68756866455078
aF54.55474090576172
aF53.091896057128906
aF52.61061477661133
aF53.28329086303711
aF55.25043487548828
aF51.05437469482422
aF52.93785095214844
aF52.2619514465332
aF52.64466094970703
aF50.48888397216797
aF53.590850830078125
aF55.45229721069336
aF52.82569885253906
aF52.90034484863281
aF50.847564697265625
aF53.60042190551758
aF51.3422737121582
aF52.66714859008789
aF55.58650207519531
aF55.832923889160156
aF53.329620361328125
aF52.54029846191406
aF53.502830505371094
aF54.97865295410156
aF52.262786865234375
aF53.554527282714844
aF55.817867279052734
aF51.99290466308594
aF52.251670837402344
aF50.90918731689453
aF55.11103820800781
aF53.66493225097656
aF55.48985290527344
aF55.594871520996094
aF54.76795959472656
aF56.999351501464844
aF53.32488250732422
aF54.837223052978516
aF51.37884521484375
aF52.91893005371094
aF52.95419692993164
aF52.81657028198242
aF52.88775634765625
aF51.724727630615234
aF52.65085220336914
aF48.485069274902344
aF54.2078857421875
aF53.673648834228516
aF50.64320373535156
aF53.91189193725586
aF54.749969482421875
aF51.758094787597656
aF54.18606948852539
aF53.060462951660156
aF51.82352066040039
aF53.131309509277344
aF52.468563079833984
aF54.54280090332031
aF52.775047302246094
aF52.704864501953125
aF52.79527282714844
aF53.842933654785156
aF51.97234344482422
aF54.680233001708984
aF53.74620056152344
aF55.37653350830078
aF54.95685577392578
aF51.686588287353516
aF52.682891845703125
aF48.60064697265625
aF50.982513427734375
aF49.82597732543945
aF56.19329071044922
aF54.5727424621582
aF55.96406936645508
aF49.5119514465332
aF52.871971130371094
aF52.75537109375
aF56.47589874267578
aF50.34024429321289
aF51.96742248535156
aF52.76595687866211
aF48.41473388671875
aF52.840736389160156
aF54.13655471801758
aF51.06336975097656
aF53.72372817993164
aF53.846519470214844
aF53.99310302734375
aF53.40032958984375
aF53.00529479980469
aF54.57695388793945
aF50.425601959228516
aF51.65928649902344
aF52.16782760620117
aF51.49335861206055
aF51.77649688720703
aF51.21238708496094
aF49.553123474121094
aF51.99214172363281
aF54.79548645019531
aF49.111236572265625
aF56.054595947265625
aF51.73011779785156
aF53.4902229309082
aF50.53339767456055
aF55.56519317626953
aF50.225547790527344
aF52.65330505371094
aF51.759063720703125
aF51.10239791870117
aF52.286102294921875
aF54.688812255859375
aF54.390602111816406
aF51.58863067626953
aF51.335330963134766
aF48.9759635925293
aF53.38240051269531
aF53.50110626220703
aF56.1500129699707
aF53.065067291259766
aF56.06053924560547
aF52.12963104248047
aF56.726165771484375
aF55.25889205932617
aF52.93705749511719
aF55.53281021118164
aF56.522212982177734
aF51.08119201660156
aF53.00044250488281
aF53.28129577636719
aF51.317508697509766
aF50.569427490234375
aF52.02763366699219
aF52.13725280761719
aF54.82255554199219
aF53.286766052246094
aF52.08497619628906
aF53.70275115966797
aF55.15492248535156
aF52.94322204589844
aF52.16520690917969
aF53.405574798583984
aF51.319183349609375
aF56.6019287109375
aF54.419776916503906
aF50.73046875
aF51.168331146240234
aF54.07170104980469
aF54.41358184814453
aF50.52261734008789
aF52.02872085571289
aF49.83232498168945
aF56.326847076416016
aF54.2774658203125
aF51.27458953857422
aF54.88325500488281
aF52.73292541503906
aF54.706031799316406
aF50.01553726196289
aF51.74773025512695
aF51.741485595703125
aF51.420448303222656
aF53.68171691894531
aF53.73133850097656
aF57.245094299316406
aF55.33348846435547
aF51.733848571777344
aF52.066627502441406
aF50.94794464111328
aF53.09381103515625
aF52.48692321777344
aF53.03816604614258
aF53.62425231933594
aF53.57882308959961
aF52.103050231933594
aF50.881370544433594
aF52.112648010253906
aF54.224578857421875
aF52.623199462890625
aF54.531044006347656
aF52.17362594604492
aF53.40715789794922
aF54.87176513671875
aF49.25537109375
aF54.12268829345703
aF51.16158676147461
aF52.42334747314453
aF51.762474060058594
aF52.132965087890625
aF54.29090118408203
aF53.45982360839844
aF50.57935333251953
aF54.88140106201172
aF52.269004821777344
aF54.55717849731445
aF50.062705993652344
aF51.74077224731445
aF54.16724395751953
aF55.29117965698242
aF53.590965270996094
aF51.848201751708984
aF51.78497314453125
aF51.65349578857422
aF53.289939880371094
aF52.4203987121582
aF52.29661178588867
aF54.963626861572266
aF54.19868469238281
aF51.9081916809082
aF55.97715377807617
aF56.12209701538086
aF50.78419876098633
aF56.85308837890625
aF53.118778228759766
aF55.36803436279297
aF52.35405349731445
aF53.22887420654297
aF55.73283386230469
aF52.29418182373047
aF51.685035705566406
aF52.08679962158203
aF54.75249099731445
aF53.75816345214844
aF51.510276794433594
aF50.6402702331543
aF54.31812286376953
aF50.794761657714844
aF54.44918441772461
aF52.138519287109375
aF54.18968963623047
aF57.838348388671875
aF50.244415283203125
aF53.6031494140625
aF51.59637451171875
aF53.671356201171875
aF55.97704315185547
aF54.64413070678711
aF51.35150909423828
aF50.00724792480469
aF51.80219268798828
aF51.641624450683594
aF55.367332458496094
aF50.86333465576172
aF54.95521545410156
aF50.442474365234375
aF50.833045959472656
aF53.8207893371582
aF51.97438430786133
aF50.74496841430664
aF51.95944595336914
aF51.40730285644531
aF52.640411376953125
aF51.77185821533203
aF51.990257263183594
aF52.817684173583984
aF58.32672119140625
aF51.514625549316406
aF52.2436637878418
aF49.473793029785156
aF52.738067626953125
aF49.79132080078125
aF51.871604919433594
aF54.508750915527344
aF50.78116226196289
aF53.01557159423828
aF50.269432067871094
aF54.515018463134766
aF48.75867462158203
aF52.64418029785156
aF54.70111846923828
aF52.206058502197266
aF50.164981842041016
aF49.328304290771484
aF51.59661865234375
aF51.3675537109375
aF54.18675231933594
aF48.492122650146484
aF48.581459045410156
aF50.93312072753906
aF53.505714416503906
aF49.76829528808594
aF53.682796478271484
aF50.73126220703125
aF50.506954193115234
aF54.45866012573242
aF52.055545806884766
aF53.22763442993164
aF54.68556594848633
aF52.00114822387695
aF55.114444732666016
aF50.0028076171875
aF55.574501037597656
aF53.09853744506836
aF55.36258316040039
aF53.195804595947266
aF55.13345718383789
aF48.605438232421875
aF52.80567932128906
aF52.41432189941406
aF51.126983642578125
aF50.901451110839844
aF48.82598114013672
aF52.57728576660156
aF53.44263458251953
aF53.90291976928711
aF53.28260040283203
aF53.7501220703125
aF51.507728576660156
aF54.553245544433594
aF52.258201599121094
aF50.46041488647461
aF50.87154006958008
aF49.809574127197266
aF53.66609573364258
aF54.25115203857422
aF52.00164794921875
aF49.224586486816406
aF54.75916290283203
aF51.61788558959961
aF51.464027404785156
aF53.121456146240234
aF54.04960632324219
aF52.066566467285156
aF51.097999572753906
aF52.18495178222656
aF53.97719192504883
aF53.299034118652344
aF52.25492858886719
aF55.03224563598633
aF49.79477310180664
aF48.04937744140625
aF55.07467269897461
aF50.20946502685547
aF53.32405090332031
aF51.915008544921875
aF51.92328643798828
aF56.0402946472168
aF51.51898956298828
aF51.619850158691406
aF52.51112365722656
aF52.71711730957031
aF52.642799377441406
aF49.989646911621094
aF55.93977355957031
aF51.399383544921875
aF53.07285690307617
aF53.80961608886719
aF51.430213928222656
aF52.60776901245117
aF54.90172576904297
aF55.81056213378906
aF55.572086334228516
aF52.00458526611328
aF51.563392639160156
aF54.255401611328125
aF50.87260437011719
aF50.68537902832031
aF57.82109451293945
aF56.117645263671875
aF52.81978225708008
aF55.784236907958984
aF53.909584045410156
aF53.645530700683594
aF52.0435791015625
aF52.515892028808594
aF51.01980209350586
aF54.66211700439453
aF50.35232925415039
aF46.920772552490234
aF49.06891632080078
aF52.77431869506836
aF50.6644287109375
aF51.864173889160156
aF52.013671875
aF50.91902542114258
aF51.572811126708984
aF51.66813659667969
aF55.771446228027344
aF52.09710693359375
aF50.8733024597168
aF50.09059143066406
aF51.569217681884766
aF51.153350830078125
aF52.89750289916992
aF55.158565521240234
aF54.012916564941406
aF49.717185974121094
aF50.57640838623047
aF55.53407669067383
aF51.32984924316406
aF52.477142333984375
aF57.799835205078125
aF53.07640838623047
aF53.38716125488281
aF47.841278076171875
aF50.07832336425781
aF54.371437072753906
aF52.35415267944336
aF53.177757263183594
aF51.932193756103516
aF52.460845947265625
aF53.362953186035156
aF52.826393127441406
aF56.81819152832031
aF52.563541412353516
aF53.46773147583008
aF53.33097457885742
aF51.598365783691406
aF49.16773223876953
aF55.378292083740234
aF51.43608093261719
aF53.33543395996094
aF53.22706985473633
aF52.76221466064453
aF52.62702178955078
aF52.78024673461914
aF51.64593505859375
aF52.35463333129883
aF51.529449462890625
aF51.409263610839844
aF50.131866455078125
aF49.309837341308594
aF54.41542053222656
aF51.64295196533203
aF52.3209228515625
aF50.73248291015625
aF51.13913345336914
aF56.84935760498047
aF52.01008605957031
aF52.585182189941406
aF50.160552978515625
aF53.6963005065918
aF52.425106048583984
aF54.6265983581543
aF54.67621612548828
aF54.89239501953125
aF54.387733459472656
aF50.97168731689453
aF50.2470588684082
aF52.3424072265625
aF52.669002532958984
aF50.658653259277344
aF50.844730377197266
aF54.82398223876953
aF49.76502990722656
aF53.77614212036133
aF54.826873779296875
aF50.721195220947266
aF53.74058151245117
aF52.885467529296875
aF51.621917724609375
aF50.8774528503418
aF50.54240417480469
aF51.71398162841797
aF51.23250961303711
aF55.47145080566406
aF54.916847229003906
aF54.1782341003418
aF53.08171844482422
aF52.4365234375
aF50.61035919189453
aF52.83567810058594
aF51.198974609375
aF53.378639221191406
aF52.12323760986328
aF53.007389068603516
aF50.16383743286133
aF49.68345260620117
aF54.55674743652344
aF53.092552185058594
aF52.605525970458984
aF53.281951904296875
aF55.247314453125
aF51.04629898071289
aF52.9382209777832
aF52.261749267578125
aF52.64625549316406
aF50.490211486816406
aF53.59178161621094
aF55.45197677612305
aF52.82525634765625
aF52.902496337890625
aF50.84468078613281
aF53.60383224487305
aF51.340179443359375
aF52.666255950927734
aF55.58466339111328
aF55.830970764160156
aF53.33009719848633
aF52.52903747558594
aF53.50465774536133
aF54.97597885131836
aF52.26154327392578
aF53.556880950927734
aF55.82266616821289
aF51.99987030029297
aF52.251773834228516
aF50.90473937988281
aF55.11116409301758
aF53.660884857177734
aF55.48985290527344
aF55.592037200927734
aF54.76655960083008
aF56.992942810058594
aF53.32422637939453
aF54.838661193847656
aF51.37520217895508
aF52.91465759277344
aF52.94966125488281
aF52.81376647949219
aF52.88538360595703
aF51.725093841552734
aF52.64712142944336
aF48.48255920410156
aF54.208274841308594
aF53.673126220703125
aF50.6395263671875
aF53.910255432128906
aF54.75265121459961
aF51.75502014160156
aF54.185096740722656
aF53.060054779052734
aF51.82466125488281
aF53.12765884399414
aF52.465240478515625
aF54.543853759765625
aF52.776084899902344
aF52.70338439941406
aF52.79291534423828
aF53.84223937988281
aF51.969635009765625
aF54.68071365356445
aF53.746192932128906
aF55.37745666503906
aF54.952117919921875
aF51.68556213378906
aF52.68327331542969
aF48.60169219970703
aF50.98295211791992
aF49.82469177246094
aF56.19261169433594
aF54.57072830200195
aF55.963844299316406
aF49.50720977783203
aF52.87568664550781
aF52.754310607910156
aF56.475399017333984
aF50.33701705932617
aF51.96055221557617
aF52.762413024902344
aF48.41483688354492
aF52.840606689453125
aF54.138023376464844
aF51.06775665283203
aF53.7230224609375
aF53.840885162353516
aF53.99492645263672
aF53.39408874511719
aF53.00677490234375
aF54.57407760620117
aF50.42230224609375
aF51.6613655090332
aF52.16914367675781
aF51.48998260498047
aF51.77705383300781
aF51.209617614746094
aF49.55017852783203
aF51.987369537353516
aF54.800540924072266
aF49.10832977294922
aF56.05300521850586
aF51.730506896972656
aF53.486942291259766
aF50.535240173339844
aF55.57025146484375
aF50.23053741455078
aF52.651947021484375
aF51.75590515136719
aF51.10183334350586
aF52.28948974609375
aF54.68323516845703
aF54.390010833740234
aF51.584373474121094
aF51.33815383911133
aF48.97352600097656
aF53.38088607788086
aF53.49932098388672
aF56.156089782714844
aF53.065303802490234
aF56.06504821777344
aF52.118900299072266
aF56.72748947143555
aF55.257164001464844
aF52.937522888183594
aF55.53355026245117
aF56.52143096923828
aF51.081783294677734
aF52.99583053588867
aF53.275821685791016
aF51.32177734375
aF50.57264709472656
aF52.02294921875
aF52.13510513305664
aF54.82350540161133
aF53.289825439453125
aF52.083229064941406
aF53.705238342285156
aF55.15829849243164
aF52.945831298828125
aF52.1551399230957
aF53.40015411376953
aF51.31449890136719
aF56.59954833984375
aF54.4215087890625
aF50.7318229675293
aF51.16603088378906
aF54.06675720214844
aF54.420162200927734
aF50.52302551269531
aF52.030818939208984
aF49.829742431640625
aF56.323970794677734
aF54.275997161865234
aF51.27442169189453
aF54.88353729248047
aF52.728851318359375
aF54.70622634887695
aF50.01892852783203
aF51.74870681762695
aF51.7419319152832
aF51.416656494140625
aF53.68309783935547
aF53.73060607910156
aF57.244869232177734
aF55.33134460449219
aF51.728946685791016
aF52.06074905395508
aF50.94520568847656
aF53.09095001220703
aF52.48585510253906
aF53.032352447509766
aF53.62657165527344
aF53.57395553588867
aF52.099884033203125
aF50.87580871582031
aF52.11481475830078
aF54.22368621826172
aF52.62129592895508
aF54.52756118774414
aF52.171470642089844
aF53.401573181152344
aF54.86632537841797
aF49.25745391845703
aF54.12134552001953
aF51.15824508666992
aF52.42101287841797
aF51.758697509765625
aF52.125404357910156
aF54.29106903076172
aF53.46149826049805
aF50.58184814453125
aF54.87986755371094
aF52.270809173583984
aF54.55353546142578
aF50.05526351928711
aF51.7382698059082
aF54.16600799560547
aF55.28779602050781
aF53.58928680419922
aF51.839927673339844
aF51.785057067871094
aF51.65397262573242
aF53.28438186645508
aF52.42268371582031
aF52.2935791015625
aF54.959861755371094
aF54.199100494384766
aF51.907249450683594
aF55.97037124633789
aF56.11954879760742
aF50.785972595214844
aF56.86186981201172
aF53.11442565917969
aF55.36564636230469
aF52.350135803222656
aF53.223236083984375
aF55.73278045654297
aF52.294227600097656
aF51.68429946899414
aF52.08882141113281
aF54.7496337890625
aF53.757049560546875
aF51.51502990722656
aF50.63984298706055
aF54.31476974487305
aF50.79587173461914
aF54.44804382324219
aF52.14093017578125
aF54.191734313964844
aF57.83534240722656
aF50.2388801574707
aF53.60050964355469
aF51.59870147705078
aF53.66429138183594
aF55.97467803955078
aF54.64595031738281
aF51.351051330566406
aF50.008880615234375
aF51.80058288574219
aF51.644248962402344
aF55.372398376464844
aF50.866024017333984
aF54.953094482421875
aF50.44031524658203
aF50.82444763183594
aF53.81708526611328
aF51.97686004638672
aF50.745643615722656
aF51.959293365478516
aF51.405670166015625
aF52.6390380859375
aF51.77134323120117
aF51.98822784423828
aF52.81645965576172
aF58.32398986816406
aF51.513275146484375
aF52.24327087402344
aF49.46826171875
aF52.73438262939453
aF49.783451080322266
aF51.868743896484375
aF54.508914947509766
aF50.779579162597656
aF53.01725387573242
aF50.269535064697266
aF54.5180549621582
aF48.760337829589844
aF52.641761779785156
aF54.696922302246094
aF52.20115661621094
aF50.16286849975586
aF49.329105377197266
aF51.59880447387695
aF51.35919952392578
aF54.18593978881836
aF48.49346160888672
aF48.58221435546875
aF50.93196487426758
aF53.502418518066406
aF49.76656723022461
aF53.68523406982422
aF50.73248291015625
aF50.496437072753906
aF54.46088409423828
aF52.051483154296875
aF53.23104476928711
aF54.68706130981445
aF52.000850677490234
aF55.11493682861328
aF50.001136779785156
aF55.57594299316406
aF53.09480285644531
aF55.363975524902344
aF53.19335174560547
aF55.13297653198242
aF48.59980010986328
aF52.801822662353516
aF52.413063049316406
aF51.126258850097656
aF50.90624237060547
aF48.822837829589844
aF52.57650375366211
aF53.44578170776367
aF53.90281677246094
aF53.27804183959961
aF53.75071716308594
aF51.49954605102539
aF54.55568313598633
aF52.250572204589844
aF50.46147537231445
aF50.86964797973633
aF49.808937072753906
aF53.66868209838867
aF54.25422286987305
aF51.99934387207031
aF49.217586517333984
aF54.76343536376953
aF51.6172981262207
aF51.46295166015625
aF53.12154006958008
aF54.050148010253906
aF52.06709289550781
aF51.0980224609375
aF52.18505096435547
aF53.9736442565918
aF53.301551818847656
aF52.24737548828125
aF55.03003692626953
aF49.79175567626953
aF48.04210662841797
aF55.07171630859375
aF50.20750427246094
aF53.32505798339844
aF51.90917205810547
aF51.919639587402344
aF56.035789489746094
aF51.5175895690918
aF51.61553192138672
aF52.51108932495117
aF52.71246337890625
aF52.640506744384766
aF49.98609161376953
aF55.93484878540039
aF51.39802551269531
aF53.073158264160156
aF53.806175231933594
aF51.43460464477539
aF52.60574722290039
aF54.90052795410156
aF55.80447769165039
aF55.569271087646484
aF52.00794982910156
aF51.56203842163086
aF54.25422668457031
aF50.8682861328125
aF50.680206298828125
aF57.81769943237305
aF56.11909866333008
aF52.82024383544922
aF55.78765106201172
aF53.90380096435547
aF53.63991165161133
aF52.0414924621582
aF52.5152587890625
aF51.02045440673828
aF54.66261672973633
aF50.35731506347656
aF46.9213981628418
aF49.07671356201172
aF52.76768112182617
aF50.66083526611328
aF51.86204528808594
aF52.015960693359375
aF50.91659164428711
aF51.573638916015625
aF51.665794372558594
aF55.77208709716797
aF52.0948371887207
aF50.87337875366211
aF50.088096618652344
aF51.56999206542969
aF51.15013122558594
aF52.896148681640625
aF55.155982971191406
aF54.008888244628906
aF49.71754455566406
aF50.57660675048828
aF55.540218353271484
aF51.33275604248047
aF52.47816467285156
aF57.796241760253906
aF53.0820198059082
aF53.385231018066406
aF47.842918395996094
aF50.08025360107422
aF54.371307373046875
aF52.35810089111328
aF53.17711639404297
aF51.9326171875
aF52.45545959472656
aF53.3580207824707
aF52.82611083984375
aF56.81109619140625
aF52.563873291015625
aF53.468299865722656
aF53.32930374145508
aF51.60517883300781
aF49.16184997558594
aF55.38050079345703
aF51.437583923339844
aF53.329376220703125
aF53.22441482543945
aF52.76600646972656
aF52.61744689941406
aF52.77247619628906
aF51.64405822753906
aF52.3539924621582
aF51.53382110595703
aF51.41075897216797
aF50.13021469116211
aF49.30264663696289
aF54.416297912597656
aF51.64378356933594
aF52.32063293457031
aF50.726837158203125
aF51.14065933227539
aF56.85033416748047
aF52.008514404296875
aF52.584251403808594
aF50.155372619628906
aF53.69693374633789
aF52.42884063720703
aF54.62533187866211
aF54.67498779296875
aF54.890342712402344
aF54.382816314697266
aF50.97096252441406
aF50.24565505981445
aF52.3420295715332
aF52.664676666259766
aF50.66220474243164
aF50.842491149902344
aF54.823028564453125
aF49.76814270019531
aF53.774925231933594
aF54.82286834716797
aF50.71776580810547
aF53.738975524902344
aF52.88913345336914
aF51.625335693359375
aF50.87737274169922
aF50.53855895996094
aF51.715023040771484
aF51.23302459716797
aF55.46338653564453
aF54.90870666503906
aF54.17072677612305
aF53.080223083496094
aF52.43754959106445
aF50.613929748535156
aF52.84070587158203
aF51.201080322265625
aF53.37290954589844
aF52.12608337402344
aF53.009361267089844
aF50.1577033996582
aF49.681243896484375
aF54.55866241455078
aF53.09405517578125
aF52.60015106201172
aF53.28190231323242
aF55.24700927734375
aF51.041168212890625
aF52.940650939941406
aF52.26317596435547
aF52.647361755371094
aF50.48960876464844
aF53.59377670288086
aF55.45143127441406
aF52.825469970703125
aF52.9042854309082
aF50.84315872192383
aF53.60710906982422
aF51.34059143066406
aF52.66603088378906
aF55.58179473876953
aF55.829959869384766
aF53.331573486328125
aF52.51985168457031
aF53.504859924316406
aF54.97333526611328
aF52.260009765625
aF53.56016540527344
aF55.82733917236328
aF52.00653839111328
aF52.25249099731445
aF50.90156936645508
aF55.109291076660156
aF53.65680694580078
aF55.487098693847656
aF55.58871078491211
aF54.764015197753906
aF56.98828887939453
aF53.32337951660156
aF54.83964538574219
aF51.37190246582031
aF52.91322326660156
aF52.9446907043457
aF52.8115348815918
aF52.88324737548828
aF51.725799560546875
aF52.644744873046875
aF48.480621337890625
aF54.207157135009766
aF53.671905517578125
aF50.63825988769531
aF53.90960693359375
aF54.757240295410156
aF51.75140380859375
aF54.184326171875
aF53.05847930908203
aF51.82683181762695
aF53.125457763671875
aF52.461978912353516
aF54.54559326171875
aF52.77531433105469
aF52.701377868652344
aF52.786415100097656
aF53.842525482177734
aF51.967308044433594
aF54.68136215209961
aF53.74559783935547
aF55.37762451171875
aF54.94804000854492
aF51.683258056640625
aF52.6808967590332
aF48.602867126464844
aF50.98358154296875
aF49.825469970703125
aF56.191104888916016
aF54.568145751953125
aF55.963783264160156
aF49.504432678222656
aF52.87598419189453
aF52.7520866394043
aF56.4744758605957
aF50.333099365234375
aF51.95513916015625
aF52.76040267944336
aF48.41370391845703
aF52.84172439575195
aF54.13725280761719
aF51.07139587402344
aF53.72389221191406
aF53.83582305908203
aF53.99619674682617
aF53.38915252685547
aF53.00848388671875
aF54.572166442871094
aF50.41794204711914
aF51.66338348388672
aF52.169246673583984
aF51.48664855957031
aF51.779029846191406
aF51.206031799316406
aF49.549354553222656
aF51.98173522949219
aF54.804656982421875
aF49.10578536987305
aF56.05216598510742
aF51.730690002441406
aF53.48332214355469
aF50.53350067138672
aF55.573829650878906
aF50.233978271484375
aF52.65008544921875
aF51.75379943847656
aF51.1035041809082
aF52.29246139526367
aF54.67832565307617
aF54.39012145996094
aF51.57861328125
aF51.340614318847656
aF48.971717834472656
aF53.38016891479492
aF53.49784469604492
aF56.16116714477539
aF53.065956115722656
aF56.06713104248047
aF52.10917663574219
aF56.728271484375
aF55.254756927490234
aF52.93577575683594
aF55.533531188964844
aF56.52085876464844
aF51.08137512207031
aF52.991981506347656
aF53.27233123779297
aF51.32656478881836
aF50.57635498046875
aF52.01839065551758
aF52.134132385253906
aF54.824119567871094
aF53.29116439819336
aF52.08110427856445
aF53.70886993408203
aF55.16191101074219
aF52.947044372558594
aF52.146728515625
aF53.39435958862305
aF51.3088264465332
aF56.59783935546875
aF54.42284393310547
aF50.73308563232422
aF51.16587829589844
aF54.06227493286133
aF54.42677688598633
aF50.522377014160156
aF52.03225326538086
aF49.827308654785156
aF56.321136474609375
aF54.27455139160156
aF51.272369384765625
aF54.883121490478516
aF52.7242317199707
aF54.706016540527344
aF50.02159881591797
aF51.74929428100586
aF51.74208068847656
aF51.41385269165039
aF53.68539810180664
aF53.73064422607422
aF57.245460510253906
aF55.32956314086914
aF51.724090576171875
aF52.0556755065918
aF50.94355010986328
aF53.09043884277344
aF52.48597717285156
aF53.0272216796875
aF53.62884521484375
aF53.57189178466797
aF52.09587097167969
aF50.869117736816406
aF52.11639404296875
aF54.22438049316406
aF52.619476318359375
aF54.524505615234375
aF52.1707649230957
aF53.39688491821289
aF54.86181640625
aF49.26106262207031
aF54.11983108520508
aF51.156280517578125
aF52.41773986816406
aF51.75729751586914
aF52.11908721923828
aF54.29169464111328
aF53.46461486816406
aF50.58372497558594
aF54.878509521484375
aF52.27180480957031
aF54.55183410644531
aF50.04990005493164
aF51.736610412597656
aF54.164756774902344
aF55.2840461730957
aF53.58781814575195
aF51.83539962768555
aF51.78438949584961
aF51.65546417236328
aF53.27854537963867
aF52.42527389526367
aF52.290260314941406
aF54.95555114746094
aF54.19879150390625
aF51.90805435180664
aF55.966163635253906
aF56.11625671386719
aF50.78685760498047
aF56.86890411376953
aF53.110862731933594
aF55.363731384277344
aF52.34423065185547
aF53.21904373168945
aF55.7332649230957
aF52.29552459716797
aF51.684417724609375
aF52.090576171875
aF54.74845504760742
aF53.756202697753906
aF51.5179443359375
aF50.638427734375
aF54.31290054321289
aF50.79729461669922
aF54.44708251953125
aF52.14173889160156
aF54.193660736083984
aF57.83375930786133
aF50.23545837402344
aF53.59912872314453
aF51.60250473022461
aF53.65789031982422
aF55.97240447998047
aF54.648216247558594
aF51.34998321533203
aF50.010475158691406
aF51.79955291748047
aF51.64482498168945
aF55.37544631958008
aF50.868019104003906
aF54.95146179199219
aF50.438880920410156
aF50.81584930419922
aF53.813926696777344
aF51.9779167175293
aF50.74470520019531
aF51.95964050292969
aF51.40285110473633
aF52.63743591308594
aF51.770912170410156
aF51.986000061035156
aF52.81513214111328
aF58.32151794433594
aF51.51329803466797
aF52.24299240112305
aF49.463741302490234
aF52.73243713378906
aF49.77460479736328
aF51.86537170410156
aF54.50920867919922
aF50.77848815917969
aF53.01878356933594
aF50.269752502441406
aF54.520870208740234
aF48.76290512084961
aF52.638893127441406
aF54.69281768798828
aF52.198509216308594
aF50.1624870300293
aF49.3282470703125
aF51.600074768066406
aF51.35151672363281
aF54.185401916503906
aF48.49638748168945
aF48.5835075378418
aF50.93046188354492
aF53.49919128417969
aF49.764259338378906
aF53.68754577636719
aF50.7341194152832
aF50.487525939941406
aF54.46351623535156
aF52.04627990722656
aF53.23271942138672
aF54.68688201904297
aF51.999053955078125
aF55.11566162109375
aF50.00151824951172
aF55.576942443847656
aF53.091064453125
aF55.36792755126953
aF53.191951751708984
aF55.131507873535156
aF48.595890045166016
aF52.798431396484375
aF52.41175842285156
aF51.125911712646484
aF50.91194152832031
aF48.82169723510742
aF52.574764251708984
aF53.449501037597656
aF53.904319763183594
aF53.2745475769043
aF53.75293731689453
aF51.490806579589844
aF54.5617561340332
aF52.243812561035156
aF50.46037292480469
aF50.86662292480469
aF49.80833435058594
aF53.671791076660156
aF54.25627899169922
aF51.996944427490234
aF49.212127685546875
aF54.76860427856445
aF51.61603927612305
aF51.462188720703125
aF53.121707916259766
aF54.052032470703125
aF52.06684112548828
aF51.09782791137695
aF52.185882568359375
aF53.97220993041992
aF53.30326461791992
aF52.24285888671875
aF55.02866744995117
aF49.789024353027344
aF48.035545349121094
aF55.06715393066406
aF50.205589294433594
aF53.32627868652344
aF51.90485382080078
aF51.91730499267578
aF56.03152847290039
aF51.51508712768555
aF51.612388610839844
aF52.50902557373047
aF52.706260681152344
aF52.638614654541016
aF49.984291076660156
aF55.931602478027344
aF51.397300720214844
aF53.073577880859375
aF53.80564880371094
aF51.437232971191406
aF52.6025390625
aF54.8991813659668
aF55.79865264892578
aF55.56623077392578
aF52.00954055786133
aF51.559349060058594
aF54.25297164916992
aF50.86637878417969
aF50.677181243896484
aF57.815460205078125
aF56.122802734375
aF52.819374084472656
aF55.79100799560547
aF53.900028228759766
aF53.635311126708984
aF52.040042877197266
aF52.515235900878906
aF51.02027130126953
aF54.66077423095703
aF50.36290740966797
aF46.92222595214844
aF49.08435821533203
aF52.7613525390625
aF50.65746307373047
aF51.85973358154297
aF52.018089294433594
aF50.91509246826172
aF51.57518005371094
aF51.66277313232422
aF55.77268600463867
aF52.094051361083984
aF50.87419509887695
aF50.08554458618164
aF51.569801330566406
aF51.14970016479492
aF52.894775390625
aF55.15609359741211
aF54.00520324707031
aF49.719058990478516
aF50.576908111572266
aF55.54597473144531
aF51.33605194091797
aF52.477806091308594
aF57.79380416870117
aF53.08729553222656
aF53.38446807861328
aF47.845069885253906
aF50.08106231689453
aF54.37285614013672
aF52.36281967163086
aF53.178749084472656
aF51.93359375
aF52.45224380493164
aF53.35478210449219
aF52.82612609863281
aF56.80390930175781
aF52.56449890136719
aF53.46965026855469
aF53.32549285888672
aF51.61165237426758
aF49.1552734375
aF55.38216018676758
aF51.4375114440918
aF53.32569122314453
aF53.22416305541992
aF52.770240783691406
aF52.60790252685547
aF52.76566696166992
aF51.642784118652344
aF52.35315704345703
aF51.53524398803711
aF51.412635803222656
aF50.128658294677734
aF49.29715347290039
aF54.417396545410156
aF51.64455032348633
aF52.32000732421875
aF50.722286224365234
aF51.13896560668945
aF56.85272216796875
aF52.00591278076172
aF52.58350372314453
aF50.15235900878906
aF53.6964225769043
aF52.430686950683594
aF54.62480545043945
aF54.674495697021484
aF54.88615417480469
aF54.37968826293945
aF50.97046661376953
aF50.24638748168945
aF52.34312057495117
aF52.661808013916016
aF50.66396713256836
aF50.841102600097656
aF54.823936462402344
aF49.77135467529297
aF53.773983001708984
aF54.81944274902344
aF50.71632385253906
aF53.7387809753418
aF52.891700744628906
aF51.62788009643555
aF50.877586364746094
aF50.53709411621094
aF51.7158317565918
aF51.232540130615234
aF55.4565544128418
aF54.902992248535156
aF54.1640510559082
aF53.0791015625
aF52.43931579589844
aF50.61774444580078
aF52.84733581542969
aF51.203704833984375
aF53.36807632446289
aF52.12918472290039
aF53.011383056640625
aF50.15349578857422
aF49.67985153198242
aF54.5587158203125
aF53.09346008300781
aF52.59557342529297
aF53.2812614440918
aF55.2449951171875
aF51.036895751953125
aF52.942691802978516
aF52.264251708984375
aF52.647491455078125
aF50.488670349121094
aF53.596534729003906
aF55.450103759765625
aF52.826026916503906
aF52.906410217285156
aF50.84137725830078
aF53.610572814941406
aF51.34159851074219
aF52.66511917114258
aF55.58100128173828
aF55.82807159423828
aF53.33142852783203
aF52.51149368286133
aF53.50501251220703
aF54.9729118347168
aF52.25928497314453
aF53.56345748901367
aF55.83187484741211
aF52.013832092285156
aF52.25407409667969
aF50.900184631347656
aF55.107643127441406
aF53.65443420410156
aF55.486724853515625
aF55.58708190917969
aF54.76456832885742
aF56.98448944091797
aF53.322265625
aF54.84136199951172
aF51.369449615478516
aF52.91023254394531
aF52.94212341308594
aF52.80799865722656
aF52.881290435791016
aF51.724639892578125
aF52.643489837646484
aF48.481292724609375
aF54.20751190185547
aF53.67152404785156
aF50.63582992553711
aF53.907005310058594
aF54.76047134399414
aF51.748451232910156
aF54.18317413330078
aF53.05877685546875
aF51.82822036743164
aF53.12235641479492
aF52.459102630615234
aF54.54589080810547
aF52.777565002441406
aF52.70079040527344
aF52.782859802246094
aF53.841285705566406
aF51.9652099609375
aF54.68169403076172
aF53.74424362182617
aF55.37775802612305
aF54.94484329223633
aF51.682037353515625
aF52.67939376831055
aF48.603904724121094
aF50.98398208618164
aF49.82542419433594
aF56.19136047363281
aF54.56680679321289
aF55.96369171142578
aF49.500732421875
aF52.876529693603516
aF52.75175476074219
aF56.473876953125
aF50.329505920410156
aF51.950523376464844
aF52.75919723510742
aF48.412254333496094
aF52.8412971496582
aF54.13775634765625
aF51.076751708984375
aF53.72444152832031
aF53.83268737792969
aF53.998504638671875
aF53.383544921875
aF53.009979248046875
aF54.56912612915039
aF50.41606903076172
aF51.664222717285156
aF52.16980743408203
aF51.48369598388672
aF51.77980041503906
aF51.20332336425781
aF49.54918670654297
aF51.976924896240234
aF54.80986785888672
aF49.103660583496094
aF56.051551818847656
aF51.73259735107422
aF53.47898864746094
aF50.53333282470703
aF55.57683563232422
aF50.23822021484375
aF52.649662017822266
aF51.75096893310547
aF51.10338592529297
aF52.2957763671875
aF54.67329406738281
aF54.38875198364258
aF51.57305145263672
aF51.342254638671875
aF48.970584869384766
aF53.37715148925781
aF53.497032165527344
aF56.16697311401367
aF53.06751251220703
aF56.070220947265625
aF52.0988883972168
aF56.72866439819336
aF55.252952575683594
aF52.93517303466797
aF55.53514862060547
aF56.52104187011719
aF51.07982635498047
aF52.988887786865234
aF53.267066955566406
aF51.33033752441406
aF50.57953643798828
aF52.014556884765625
aF52.132469177246094
aF54.824432373046875
aF53.2928352355957
aF52.079097747802734
aF53.7131233215332
aF55.16510772705078
aF52.947052001953125
aF52.13928985595703
aF53.389068603515625
aF51.30504608154297
aF56.59672546386719
aF54.424285888671875
aF50.7337760925293
aF51.16356658935547
aF54.05744171142578
aF54.43403625488281
aF50.52138137817383
aF52.03254699707031
aF49.825340270996094
aF56.31867218017578
aF54.27421188354492
aF51.27149200439453
aF54.884185791015625
aF52.72029113769531
aF54.70626449584961
aF50.024452209472656
aF51.74968719482422
aF51.74298858642578
aF51.4105224609375
aF53.686866760253906
aF53.73246765136719
aF57.24441146850586
aF55.32782745361328
aF51.719818115234375
aF52.05168151855469
aF50.940982818603516
aF53.09037399291992
aF52.48529052734375
aF53.02381896972656
aF53.63190841674805
aF53.57099151611328
aF52.0941162109375
aF50.86351776123047
aF52.118804931640625
aF54.22644805908203
aF52.61819076538086
aF54.521202087402344
aF52.169498443603516
aF53.39335250854492
aF54.85686492919922
aF49.26475524902344
aF54.11751937866211
aF51.154258728027344
aF52.414955139160156
aF51.75428009033203
aF52.11474609375
aF54.29203796386719
aF53.46681213378906
aF50.58576202392578
aF54.87820053100586
aF52.272552490234375
aF54.550262451171875
aF50.045188903808594
aF51.73509216308594
aF54.163246154785156
aF55.28003692626953
aF53.587974548339844
aF51.830535888671875
aF51.78240966796875
aF51.655460357666016
aF53.27322769165039
aF52.426292419433594
aF52.28550720214844
aF54.951961517333984
aF54.19673156738281
aF51.90761184692383
aF55.96221923828125
aF56.115047454833984
aF50.788814544677734
aF56.876380920410156
aF53.10700607299805
aF55.36425018310547
aF52.33974838256836
aF53.214195251464844
aF55.73462677001953
aF52.295753479003906
aF51.68384552001953
aF52.09238052368164
aF54.746177673339844
aF53.75662612915039
aF51.52062225341797
aF50.63789367675781
aF54.3121337890625
aF50.796714782714844
aF54.44565963745117
aF52.143348693847656
aF54.19434356689453
aF57.83246612548828
aF50.23467254638672
aF53.599273681640625
aF51.60493469238281
aF53.65349578857422
aF55.97129821777344
aF54.65007400512695
aF51.3480224609375
aF50.011077880859375
aF51.799808502197266
aF51.64598083496094
aF55.37660217285156
aF50.86912536621094
aF54.950904846191406
aF50.43865966796875
aF50.809974670410156
aF53.812007904052734
aF51.97877502441406
aF50.74359893798828
aF51.959022521972656
aF51.40080642700195
aF52.63566207885742
aF51.770057678222656
aF51.983184814453125
aF52.8145637512207
aF58.31917190551758
aF51.51377868652344
aF52.24468994140625
aF49.458656311035156
aF52.72930145263672
aF49.767189025878906
aF51.86356735229492
aF54.509376525878906
aF50.776573181152344
aF53.02131271362305
aF50.27189636230469
aF54.52442932128906
aF48.763362884521484
aF52.63691711425781
aF54.689125061035156
aF52.193946838378906
aF50.16020965576172
aF49.32805633544922
aF51.601295471191406
aF51.34642791748047
aF54.18499755859375
aF48.498191833496094
aF48.58526611328125
aF50.928497314453125
aF53.496124267578125
aF49.7643928527832
aF53.690391540527344
aF50.73698425292969
aF50.47898864746094
aF54.46571350097656
aF52.04323196411133
aF53.235538482666016
aF54.68653869628906
aF51.99822235107422
aF55.11589431762695
aF49.999969482421875
aF55.579322814941406
aF53.088130950927734
aF55.370948791503906
aF53.18955612182617
aF55.13214111328125
aF48.59111022949219
aF52.794029235839844
aF52.41199493408203
aF51.12512969970703
aF50.915870666503906
aF48.81950378417969
aF52.572059631347656
aF53.451236724853516
aF53.90464782714844
aF53.272117614746094
aF53.75477600097656
aF51.48323440551758
aF54.5650634765625
aF52.235809326171875
aF50.45893859863281
aF50.86360549926758
aF49.80790710449219
aF53.67246627807617
aF54.25719451904297
aF51.994873046875
aF49.20750045776367
aF54.77298355102539
aF51.616004943847656
aF51.46120834350586
aF53.123382568359375
aF54.05596923828125
aF52.066184997558594
aF51.097923278808594
aF52.186805725097656
aF53.97080993652344
aF53.30487823486328
aF52.236534118652344
aF55.027610778808594
aF49.786293029785156
aF48.0287971496582
aF55.064231872558594
aF50.20175552368164
aF53.325775146484375
aF51.899169921875
aF51.91521453857422
aF56.028038024902344
aF51.51397705078125
aF51.609527587890625
aF52.50682830810547
aF52.70161056518555
aF52.63587951660156
aF49.982818603515625
aF55.92866516113281
aF51.39769744873047
aF53.073150634765625
aF53.803470611572266
aF51.4393424987793
aF52.60036087036133
aF54.89901351928711
aF55.79376983642578
aF55.56418228149414
aF52.01172637939453
aF51.55763244628906
aF54.250919342041016
aF50.86494827270508
aF50.67320251464844
aF57.8128776550293
aF56.12358856201172
aF52.81877899169922
aF55.79400634765625
aF53.8963623046875
aF53.63036346435547
aF52.03779983520508
aF52.514930725097656
aF51.02074432373047
aF54.65872573852539
aF50.366390228271484
aF46.92445373535156
aF49.09131622314453
aF52.75527572631836
aF50.655311584472656
aF51.857215881347656
aF52.01982879638672
aF50.91218185424805
aF51.57536315917969
aF51.660621643066406
aF55.773704528808594
aF52.09199523925781
aF50.875709533691406
aF50.08300018310547
aF51.570335388183594
aF51.148414611816406
aF52.89353942871094
aF55.155113220214844
aF54.00227355957031
aF49.721107482910156
aF50.57419204711914
aF55.55153274536133
aF51.33884811401367
aF52.48025894165039
aF57.78899002075195
aF53.09138488769531
aF53.383766174316406
aF47.847408294677734
aF50.08293914794922
aF54.37494659423828
aF52.367916107177734
aF53.178245544433594
aF51.934356689453125
aF52.44874954223633
aF53.35020065307617
aF52.826507568359375
aF56.79821014404297
aF52.5647087097168
aF53.47175979614258
aF53.322471618652344
aF51.61724853515625
aF49.147544860839844
aF55.38196563720703
aF51.437538146972656
aF53.322269439697266
aF53.2219123840332
aF52.773048400878906
aF52.59828186035156
aF52.75905227661133
aF51.642662048339844
aF52.352622985839844
aF51.53797149658203
aF51.41407775878906
aF50.12648391723633
aF49.294498443603516
aF54.419952392578125
aF51.64591979980469
aF52.320556640625
aF50.71818542480469
aF51.13837814331055
aF56.856300354003906
aF52.00517654418945
aF52.58238983154297
aF50.148658752441406
aF53.69755172729492
aF52.433319091796875
aF54.62453842163086
aF54.673011779785156
aF54.883270263671875
aF54.375450134277344
aF50.969844818115234
aF50.24525833129883
aF52.34377670288086
aF52.657928466796875
aF50.66802215576172
aF50.83991241455078
aF54.82353210449219
aF49.77421188354492
aF53.7737922668457
aF54.81653594970703
aF50.713966369628906
aF53.73790740966797
aF52.89281463623047
aF51.629547119140625
aF50.87672424316406
aF50.53306198120117
aF51.71595001220703
aF51.231990814208984
aF55.44945526123047
aF54.89588165283203
aF54.158477783203125
aF53.078834533691406
aF52.43925476074219
aF50.62146759033203
aF52.85350799560547
aF51.204833984375
aF53.36378860473633
aF52.13233947753906
aF53.013004302978516
aF50.148704528808594
aF49.67780685424805
aF54.559852600097656
aF53.094383239746094
aF52.5906982421875
aF53.28050231933594
aF55.244789123535156
aF51.03400421142578
aF52.94450759887695
aF52.265193939208984
aF52.648399353027344
aF50.48833084106445
aF53.598915100097656
aF55.450748443603516
aF52.826576232910156
aF52.906776428222656
aF50.840675354003906
aF53.614707946777344
aF51.342315673828125
aF52.664817810058594
aF55.578887939453125
aF55.82672119140625
aF53.3328742980957
aF52.502464294433594
aF53.50482940673828
aF54.97323989868164
aF52.2575798034668
aF53.56575012207031
aF55.83563995361328
aF52.0222282409668
aF52.255035400390625
aF50.89937973022461
aF55.10486602783203
aF53.65084457397461
aF55.484039306640625
aF55.58401870727539
aF54.763641357421875
aF56.980506896972656
aF53.322242736816406
aF54.842933654785156
aF51.36741638183594
aF52.9088134765625
aF52.938316345214844
aF52.80559539794922
aF52.88017272949219
aF51.72334671020508
aF52.642601013183594
aF48.482200622558594
aF54.206748962402344
aF53.67078399658203
aF50.63359832763672
aF53.905086517333984
aF54.76410675048828
aF51.7459716796875
aF54.18058395385742
aF53.05768966674805
aF51.82892990112305
aF53.11859130859375
aF52.456539154052734
aF54.547000885009766
aF52.777462005615234
aF52.69971466064453
aF52.77867126464844
aF53.840087890625
aF51.963966369628906
aF54.68293380737305
aF53.743438720703125
aF55.37769317626953
aF54.94061279296875
aF51.680023193359375
aF52.67671585083008
aF48.60420227050781
aF50.984989166259766
aF49.82704162597656
aF56.19097900390625
aF54.56528091430664
aF55.96465301513672
aF49.49824523925781
aF52.87519454956055
aF52.75163269042969
aF56.47260284423828
aF50.32685852050781
aF51.94578552246094
aF52.75719451904297
aF48.41202163696289
aF52.84120178222656
aF54.13613510131836
aF51.080467224121094
aF53.72495651245117
aF53.82854461669922
aF54.00050354003906
aF53.38062286376953
aF53.012271881103516
aF54.56618118286133
aF50.413238525390625
aF51.664833068847656
aF52.17142868041992
aF51.48196029663086
aF51.78183364868164
aF51.201026916503906
aF49.548828125
aF51.973114013671875
aF54.813602447509766
aF49.10264587402344
aF56.05014419555664
aF51.73387145996094
aF53.476348876953125
aF50.531349182128906
aF55.57764434814453
aF50.2425537109375
aF52.64695739746094
aF51.75045394897461
aF51.104835510253906
aF52.29964828491211
aF54.66969299316406
aF54.38762664794922
aF51.568458557128906
aF51.343788146972656
aF48.970523834228516
aF53.37445068359375
aF53.495338439941406
aF56.17092514038086
aF53.06665802001953
aF56.07258605957031
aF52.08917999267578
aF56.72929763793945
aF55.25025177001953
aF52.934226989746094
aF55.53691101074219
aF56.51823043823242
aF51.0779914855957
aF52.98701858520508
aF53.26276397705078
aF51.33467102050781
aF50.581298828125
aF52.01027297973633
aF52.13188934326172
aF54.82417297363281
aF53.293212890625
aF52.077064514160156
aF53.71504211425781
aF55.167205810546875
aF52.947120666503906
aF52.13199996948242
aF53.382511138916016
aF51.3010368347168
aF56.59675216674805
aF54.42518615722656
aF50.734012603759766
aF51.16230773925781
aF54.05323028564453
aF54.439422607421875
aF50.51992416381836
aF52.03289031982422
aF49.822967529296875
aF56.3167839050293
aF54.27387237548828
aF51.27043533325195
aF54.8846435546875
aF52.71796417236328
aF54.705039978027344
aF50.02598571777344
aF51.748626708984375
aF51.74348449707031
aF51.407554626464844
aF53.689476013183594
aF53.733795166015625
aF57.24479675292969
aF55.32648468017578
aF51.7156982421875
aF52.04893112182617
aF50.93812561035156
aF53.090606689453125
aF52.485679626464844
aF53.02000427246094
aF53.63385772705078
aF53.56958770751953
aF52.09107971191406
aF50.8580207824707
aF52.121700286865234
aF54.228797912597656
aF52.61603546142578
aF54.51810073852539
aF52.16817092895508
aF53.38892364501953
aF54.85337829589844
aF49.268287658691406
aF54.11741638183594
aF51.15251159667969
aF52.41344451904297
aF51.752593994140625
aF52.11012268066406
aF54.29315948486328
aF53.46936798095703
aF50.58631896972656
aF54.87723159790039
aF52.275089263916016
aF54.5501594543457
aF50.04039764404297
aF51.73153305053711
aF54.161781311035156
aF55.277305603027344
aF53.587162017822266
aF51.825836181640625
aF51.781150817871094
aF51.654754638671875
aF53.268306732177734
aF52.42946243286133
aF52.28235626220703
aF54.947654724121094
aF54.194366455078125
aF51.90911102294922
aF55.95845031738281
aF56.11283874511719
aF50.7902717590332
aF56.881134033203125
aF53.10405731201172
aF55.364322662353516
aF52.33599853515625
aF53.21138000488281
aF55.736244201660156
aF52.29634475708008
aF51.681644439697266
aF52.09406661987305
aF54.74529266357422
aF53.75557327270508
aF51.52255630493164
aF50.637420654296875
aF54.31079864501953
aF50.799659729003906
aF54.44443130493164
aF52.14540100097656
aF54.19627380371094
aF57.8311653137207
aF50.23439025878906
aF53.59937286376953
aF51.60742950439453
aF53.64939498901367
aF55.96900939941406
aF54.6518669128418
aF51.34599304199219
aF50.011863708496094
aF51.79874801635742
aF51.64698791503906
aF55.379539489746094
aF50.87115478515625
aF54.950889587402344
aF50.437339782714844
aF50.80281448364258
aF53.80970001220703
aF51.9793815612793
aF50.74230194091797
aF51.959285736083984
aF51.39891815185547
aF52.63471984863281
aF51.770263671875
aF51.98267364501953
aF52.814186096191406
aF58.3166389465332
aF51.5140380859375
aF52.245330810546875
aF49.45513916015625
aF52.72675323486328
aF49.75886154174805
aF51.86165237426758
aF54.51087951660156
aF50.77546691894531
aF53.02254867553711
aF50.272056579589844
aF54.52690887451172
aF48.76526641845703
aF52.636085510253906
aF54.68621063232422
aF52.19021987915039
aF50.160491943359375
aF49.328189849853516
aF51.60116958618164
aF51.341590881347656
aF54.184688568115234
aF48.49995040893555
aF48.58660125732422
aF50.9266471862793
aF53.49280548095703
aF49.763126373291016
aF53.69329833984375
aF50.73963928222656
aF50.472633361816406
aF54.46735763549805
aF52.04090881347656
aF53.238792419433594
aF54.685855865478516
aF51.99641418457031
aF55.116554260253906
aF49.99969482421875
aF55.5817985534668
aF53.08574676513672
aF55.374229431152344
aF53.187355041503906
aF55.131805419921875
aF48.587188720703125
aF52.79045104980469
aF52.4112548828125
aF51.12286376953125
aF50.921478271484375
aF48.81844711303711
aF52.57023239135742
aF53.451629638671875
aF53.90507125854492
aF53.269317626953125
aF53.75707244873047
aF51.476078033447266
aF54.56862258911133
aF52.22905731201172
aF50.45745086669922
aF50.86025619506836
aF49.806854248046875
aF53.67405700683594
aF54.25720977783203
aF51.992164611816406
aF49.20167541503906
aF54.778114318847656
aF51.61581802368164
aF51.461612701416016
aF53.12428283691406
aF54.05849075317383
aF52.06669616699219
aF51.098148345947266
aF52.18911361694336
aF53.969635009765625
aF53.308082580566406
aF52.232933044433594
aF55.025779724121094
aF49.78455352783203
aF48.022701263427734
aF55.0605354309082
aF50.19806671142578
aF53.32494354248047
aF51.89594650268555
aF51.91112518310547
aF56.02462387084961
aF51.51272964477539
aF51.60693359375
aF52.50498962402344
aF52.697269439697266
aF52.633785247802734
aF49.98236083984375
aF55.927024841308594
aF51.39864730834961
aF53.07367706298828
aF53.80299377441406
aF51.44196319580078
aF52.598228454589844
aF54.8990478515625
aF55.78715896606445
aF55.56326675415039
aF52.014678955078125
aF51.55543518066406
aF54.24889373779297
aF50.86378860473633
aF50.67218780517578
aF57.812950134277344
aF56.12586975097656
aF52.81876754760742
aF55.79718017578125
aF53.89356231689453
aF53.62543869018555
aF52.03688049316406
aF52.51478576660156
aF51.02022933959961
aF54.658348083496094
aF50.37017822265625
aF46.92551040649414
aF49.097312927246094
aF52.749000549316406
aF50.65201187133789
aF51.85604476928711
aF52.020774841308594
aF50.910152435302734
aF51.57744598388672
aF51.65789031982422
aF55.774269104003906
aF52.09140396118164
aF50.876556396484375
aF50.08103942871094
aF51.570350646972656
aF51.1461296081543
aF52.891483306884766
aF55.153846740722656
aF53.99898147583008
aF49.722740173339844
aF50.5740966796875
aF55.55665588378906
aF51.34157943725586
aF52.48216247558594
aF57.786888122558594
aF53.09502410888672
aF53.383445739746094
aF47.84977722167969
aF50.08462142944336
aF54.37721252441406
aF52.37315368652344
aF53.17847442626953
aF51.935302734375
aF52.44598388671875
aF53.34678649902344
aF52.82672882080078
aF56.793983459472656
aF52.56464385986328
aF53.47434616088867
aF53.318565368652344
aF51.62116241455078
aF49.14129638671875
aF55.38206481933594
aF51.439453125
aF53.31902313232422
aF53.22073745727539
aF52.77716827392578
aF52.589195251464844
aF52.75144958496094
aF51.642066955566406
aF52.35273361206055
aF51.53845977783203
aF51.414634704589844
aF50.12439727783203
aF49.28951644897461
aF54.42268753051758
aF51.64603042602539
aF52.319908142089844
aF50.713680267333984
aF51.13587951660156
aF56.861656188964844
aF52.004798889160156
aF52.58229064941406
aF50.14592742919922
aF53.69927978515625
aF52.436397552490234
aF54.62391662597656
aF54.673194885253906
aF54.88050079345703
aF54.37287902832031
aF50.97038650512695
aF50.24382781982422
aF52.34409713745117
aF52.655517578125
aF50.66919708251953
aF50.8394775390625
aF54.823890686035156
aF49.77785873413086
aF53.77498245239258
aF54.81303024291992
aF50.71278762817383
aF53.73755645751953
aF52.894378662109375
aF51.632415771484375
aF50.87550354003906
aF50.532798767089844
aF51.71626663208008
aF51.23240661621094
aF55.443214416503906
aF54.89073181152344
aF54.1531867980957
aF53.07830810546875
aF52.43921661376953
aF50.623191833496094
aF52.85898208618164
aF51.204872131347656
aF53.35884094238281
aF52.13557052612305
aF53.01551055908203
aF50.144309997558594
aF49.67708969116211
aF54.559730529785156
aF53.09332275390625
aF52.58702087402344
aF53.28059387207031
aF55.24565505981445
aF51.03219985961914
aF52.94647216796875
aF52.266380310058594
aF52.6506462097168
aF50.48664855957031
aF53.60300827026367
aF55.450477600097656
aF52.82563018798828
aF52.90895080566406
aF50.839481353759766
aF53.61775588989258
aF51.34333419799805
aF52.66560745239258
aF55.57805252075195
aF55.82655334472656
aF53.334014892578125
aF52.49471664428711
aF53.506317138671875
aF54.973854064941406
aF52.255088806152344
aF53.56712341308594
aF55.83966827392578
aF52.02930450439453
aF52.255226135253906
aF50.89812469482422
aF55.10439682006836
aF53.64711380004883
aF55.48426055908203
aF55.58245849609375
aF54.76323318481445
aF56.97844696044922
aF53.3212890625
aF54.84387969970703
aF51.366233825683594
aF52.90620040893555
aF52.93407440185547
aF52.80377960205078
aF52.87853240966797
aF51.7214241027832
aF52.64176559448242
aF48.48272705078125
aF54.2072868347168
aF53.67066192626953
aF50.63304138183594
aF53.905242919921875
aF54.76762390136719
aF51.74302291870117
aF54.178401947021484
aF53.05669403076172
aF51.82986068725586
aF53.11445999145508
aF52.45372009277344
aF54.54707717895508
aF52.77822494506836
aF52.697940826416016
aF52.774261474609375
aF53.838687896728516
aF51.96309280395508
aF54.68206024169922
aF53.7413330078125
aF55.3778076171875
aF54.9383659362793
aF51.677833557128906
aF52.674705505371094
aF48.605018615722656
aF50.985557556152344
aF49.82776641845703
aF56.19052505493164
aF54.56259536743164
aF55.96586990356445
aF49.49479675292969
aF52.873878479003906
aF52.75182342529297
aF56.472747802734375
aF50.32319641113281
aF51.94140625
aF52.75669860839844
aF48.410884857177734
aF52.84107971191406
aF54.13591766357422
aF51.08503341674805
aF53.72676467895508
aF53.8267707824707
aF54.002716064453125
aF53.377742767333984
aF53.013755798339844
aF54.56419372558594
aF50.41120910644531
aF51.66604995727539
aF52.17176818847656
aF51.48023223876953
aF51.78373718261719
aF51.199195861816406
aF49.54969787597656
aF51.96991729736328
aF54.81793212890625
aF49.10268020629883
aF56.05023956298828
aF51.73584747314453
aF53.47214126586914
aF50.5307502746582
aF55.578887939453125
aF50.24525451660156
aF52.64533615112305
aF51.74824142456055
aF51.10517883300781
aF52.303375244140625
aF54.665679931640625
aF54.38603591918945
aF51.56493377685547
aF51.344844818115234
aF48.971221923828125
aF53.37212371826172
aF53.49406814575195
aF56.17487335205078
aF53.06731033325195
aF56.074180603027344
aF52.08132553100586
aF56.72962951660156
aF55.24853515625
aF52.932830810546875
aF55.53776550292969
aF56.516536712646484
aF51.07762145996094
aF52.98518371582031
aF53.25804138183594
aF51.33866882324219
aF50.58462142944336
aF52.00697326660156
aF52.13102722167969
aF54.823219299316406
aF53.29325866699219
aF52.073768615722656
aF53.718536376953125
aF55.1696662902832
aF52.94600296020508
aF52.125946044921875
aF53.37725067138672
aF51.297630310058594
aF56.59798049926758
aF54.426025390625
aF50.735008239746094
aF51.15975570678711
aF54.050071716308594
aF54.44548797607422
aF50.51957702636719
aF52.03307342529297
aF49.820945739746094
aF56.314456939697266
aF54.27397918701172
aF51.26911926269531
aF54.88353729248047
aF52.714935302734375
aF54.70420455932617
aF50.028160095214844
aF51.74829864501953
aF51.744327545166016
aF51.40495300292969
aF53.690704345703125
aF53.73515319824219
aF57.24361038208008
aF55.32429122924805
aF51.71296691894531
aF52.04625701904297
aF50.93620300292969
aF53.09046173095703
aF52.48507308959961
aF53.01811981201172
aF53.636837005615234
aF53.56950378417969
aF52.08854675292969
aF50.85169982910156
aF52.123374938964844
aF54.231929779052734
aF52.61445999145508
aF54.515079498291016
aF52.16698455810547
aF53.38702392578125
aF54.84958267211914
aF49.27153778076172
aF54.115081787109375
aF51.150733947753906
aF52.40925216674805
aF51.75077819824219
aF52.106483459472656
aF54.29256820678711
aF53.47169494628906
aF50.5890007019043
aF54.876312255859375
aF52.2753791809082
aF54.550174713134766
aF50.03506851196289
aF51.72872543334961
aF54.16194152832031
aF55.27586364746094
aF53.588069915771484
aF51.82192611694336
aF51.77912139892578
aF51.65435791015625
aF53.263099670410156
aF52.430145263671875
aF52.278167724609375
aF54.9431266784668
aF54.19215774536133
aF51.908966064453125
aF55.95634841918945
aF56.110557556152344
aF50.79242706298828
aF56.885581970214844
aF53.099613189697266
aF55.36569595336914
aF52.332435607910156
aF53.209022521972656
aF55.7368278503418
aF52.29608154296875
aF51.679283142089844
aF52.09629821777344
aF54.74482727050781
aF53.754581451416016
aF51.5228271484375
aF50.63751220703125
aF54.31097412109375
aF50.801753997802734
aF54.443443298339844
aF52.146820068359375
aF54.196533203125
aF57.82966613769531
aF50.23488998413086
aF53.598419189453125
aF51.6097412109375
aF53.64607620239258
aF55.9665412902832
aF54.65293884277344
aF51.34246826171875
aF50.012367248535156
aF51.79906463623047
aF51.64750671386719
aF55.38119125366211
aF50.87227249145508
aF54.94953536987305
aF50.43683624267578
aF50.798126220703125
aF53.807899475097656
aF51.98023986816406
aF50.74128341674805
aF51.96088409423828
aF51.39712142944336
aF52.633445739746094
aF51.77033996582031
aF51.98094940185547
aF52.81379318237305
aF58.31465530395508
aF51.51392364501953
aF52.24693298339844
aF49.45246505737305
aF52.72418212890625
aF49.75227355957031
aF51.86075973510742
aF54.512454986572266
aF50.77497482299805
aF53.023765563964844
aF50.27355194091797
aF54.52891540527344
aF48.76702880859375
aF52.635101318359375
aF54.682701110839844
aF52.18719482421875
aF50.15919494628906
aF49.329166412353516
aF51.60186767578125
aF51.33831024169922
aF54.182861328125
aF48.502655029296875
aF48.58723068237305
aF50.925968170166016
aF53.48986053466797
aF49.76308059692383
aF53.69524383544922
aF50.740745544433594
aF50.46685028076172
aF54.470252990722656
aF52.03872299194336
aF53.241920471191406
aF54.68609619140625
aF51.995330810546875
aF55.116641998291016
aF49.99873352050781
aF55.582916259765625
asVcheckpoint/checkpoint_train_loss
p45
(lp46
F181.40304565429688
aF52.907657623291016
aF52.7901496887207
aF52.7774772644043
aF52.77238845825195
aF52.769866943359375
aF52.7684326171875
aF52.76749801635742
aF52.76683044433594
aF52.766334533691406
aF52.76591491699219
aF52.76558303833008
aF52.76531982421875
aF52.765113830566406
aF52.76492691040039
aF52.7647705078125
aF52.76465606689453
aF52.764564514160156
aF52.764469146728516
aF52.764408111572266
aF52.76435852050781
aF52.764320373535156
aF52.76429748535156
aF52.7642707824707
aF52.764251708984375
aF52.76424789428711
aF52.764244079589844
aF52.764259338378906
aF52.7642707824707
aF52.7642822265625
aF52.7642936706543
aF52.76430892944336
aF52.76432418823242
aF52.764347076416016
aF52.76435852050781
aF52.764373779296875
aF52.7643928527832
aF52.76439666748047
aF52.76441192626953
aF52.7644157409668
aF52.76443099975586
aF52.764434814453125
aF52.76443099975586
aF52.764434814453125
aF52.76443099975586
aF52.76442337036133
aF52.764404296875
aF52.76439666748047
aF52.764381408691406
aF52.76436233520508
aF52.76433563232422
asVcheckpoint/checkpoint_test_loss
p47
(lp48
F181.46449279785156
aF53.111576080322266
aF52.98672103881836
aF52.97355270385742
aF52.96821975708008
aF52.96559143066406
aF52.96405792236328
aF52.963134765625
aF52.9625358581543
aF52.962120056152344
aF52.96186065673828
aF52.961673736572266
aF52.96157455444336
aF52.961524963378906
aF52.96150588989258
aF52.961524963378906
aF52.96156311035156
aF52.96162414550781
aF52.96168518066406
aF52.96176528930664
aF52.96186065673828
aF52.96195602416992
aF52.96207046508789
aF52.96217346191406
aF52.962276458740234
aF52.96240997314453
aF52.9625129699707
aF52.9626579284668
aF52.96278381347656
aF52.96290588378906
aF52.96302795410156
aF52.96316146850586
aF52.96328353881836
aF52.963409423828125
aF52.96353530883789
aF52.963653564453125
aF52.963783264160156
aF52.963897705078125
aF52.96401596069336
aF52.9641227722168
aF52.96424865722656
aF52.964351654052734
aF52.964447021484375
aF52.96455764770508
aF52.964656829833984
aF52.96474838256836
aF52.96482849121094
aF52.96492385864258
aF52.964996337890625
aF52.96506881713867
aF52.96514129638672
asVhyperparams/momentum
p49
(lp50
F0.9900000095367432
aF0.9900000095367432
aF0.9900000095367432
aF0.9900000095367432
aF0.9900000095367432
aF0.9900000095367432
aF0.9900000095367432
aF0.9900000095367432
aF0.9900000095367432
aF0.9900000095367432
aF0.9900000095367432
aF0.9900000095367432
aF0.9900000095367432
aF0.9900000095367432
aF0.9900000095367432
aF0.9900000095367432
aF0.9900000095367432
aF0.9900000095367432
aF0.9900000095367432
aF0.9900000095367432
aF0.9900000095367432
aF0.9900000095367432
aF0.9900000095367432
aF0.9900000095367432
aF0.9900000095367432
aF0.9900000095367432
aF0.9900000095367432
aF0.9900000095367432
aF0.9900000095367432
aF0.9900000095367432
aF0.9900000095367432
aF0.9900000095367432
aF0.9900000095367432
aF0.9900000095367432
aF0.9900000095367432
aF0.9900000095367432
aF0.9900000095367432
aF0.9900000095367432
aF0.9900000095367432
aF0.9900000095367432
aF0.9900000095367432
aF0.9900000095367432
aF0.9900000095367432
aF0.9900000095367432
aF0.9900000095367432
aF0.9900000095367432
aF0.9900000095367432
aF0.9900000095367432
aF0.9900000095367432
aF0.9900000095367432
aF0.9900000095367432
asVhyperparams/learning_rate
p51
(lp52
F1.5848929251660593e-05
aF1.5848929251660593e-05
aF1.5848929251660593e-05
aF1.5848929251660593e-05
aF1.5848929251660593e-05
aF1.5848929251660593e-05
aF1.5848929251660593e-05
aF1.5848929251660593e-05
aF1.5848929251660593e-05
aF1.5848929251660593e-05
aF1.5848929251660593e-05
aF1.5848929251660593e-05
aF1.5848929251660593e-05
aF1.5848929251660593e-05
aF1.5848929251660593e-05
aF1.5848929251660593e-05
aF1.5848929251660593e-05
aF1.5848929251660593e-05
aF1.5848929251660593e-05
aF1.5848929251660593e-05
aF1.5848929251660593e-05
aF1.5848929251660593e-05
aF1.5848929251660593e-05
aF1.5848929251660593e-05
aF1.5848929251660593e-05
aF1.5848929251660593e-05
aF1.5848929251660593e-05
aF1.5848929251660593e-05
aF1.5848929251660593e-05
aF1.5848929251660593e-05
aF1.5848929251660593e-05
aF1.5848929251660593e-05
aF1.5848929251660593e-05
aF1.5848929251660593e-05
aF1.5848929251660593e-05
aF1.5848929251660593e-05
aF1.5848929251660593e-05
aF1.5848929251660593e-05
aF1.5848929251660593e-05
aF1.5848929251660593e-05
aF1.5848929251660593e-05
aF1.5848929251660593e-05
aF1.5848929251660593e-05
aF1.5848929251660593e-05
aF1.5848929251660593e-05
aF1.5848929251660593e-05
aF1.5848929251660593e-05
aF1.5848929251660593e-05
aF1.5848929251660593e-05
aF1.5848929251660593e-05
aF1.5848929251660593e-05
asVtime/convergence_iterations
p53
(lp54
F0.0
aF1.0
aF1.0
aF1.0
aF1.0
aF1.0
aF1.0
aF1.0
aF1.0
aF1.0
aF1.0
aF1.0
aF1.0
aF1.0
aF1.0
aF1.0
aF1.0
aF1.0
aF1.0
aF1.0
aF1.0
aF1.0
aF1.0
aF1.0
aF1.0
aF1.0
aF1.0
aF1.0
aF1.0
aF1.0
aF1.0
aF1.0
aF1.0
aF1.0
aF1.0
aF1.0
aF1.0
aF1.0
aF1.0
aF1.0
aF1.0
aF1.0
aF1.0
aF1.0
aF1.0
aF1.0
aF1.0
aF1.0
aF1.0
aF1.0
aF1.0
as.