(dp0
S'checkpoint/checkpoint_steps'
p1
(lp2
I0
aI1
aI2
aI3
aI4
aI5
aI6
aI7
aI8
aI9
aI10
aI11
aI12
aI13
aI14
aI15
aI16
aI17
aI18
aI19
aI20
aI21
aI22
aI23
aI24
aI25
aI26
aI27
aI28
aI29
aI30
aI31
aI32
aI33
aI34
aI35
aI36
aI37
aI38
aI39
aI40
aI41
aI42
aI43
aI44
aI45
aI46
aI47
aI48
aI49
aI50
aI51
aI52
aI53
aI54
aI55
aI56
aI57
aI58
aI59
aI60
aI61
aI62
aI63
aI64
aI65
aI66
aI67
aI68
aI69
aI70
aI71
aI72
aI73
aI74
aI75
aI76
aI77
aI78
aI79
aI80
aI81
aI82
aI83
aI84
aI85
aI86
aI87
aI88
aI89
aI90
aI91
aI92
aI93
aI94
aI95
aI96
aI97
aI98
aI99
aI100
asVcheckpoint/checkpoint_train_acc
p3
(lp4
F0.0
aF0.0
aF0.0
aF0.0
aF0.0
aF0.0
aF0.0
aF0.0
aF0.0
aF0.0
aF0.0
aF0.0
aF0.0
aF0.0
aF0.0
aF0.0
aF0.0
aF0.0
aF0.0
aF0.0
aF0.0
aF0.0
aF0.0
aF0.0
aF0.0
aF0.0
aF0.0
aF0.0
aF0.0
aF0.0
aF0.0
aF0.0
aF0.0
aF0.0
aF0.0
aF0.0
aF0.0
aF0.0
aF0.0
aF0.0
aF0.0
aF0.0
aF0.0
aF0.0
aF0.0
aF0.0
aF0.0
aF0.0
aF0.0
aF0.0
aF0.0
aF0.0
aF0.0
aF0.0
aF0.0
aF0.0
aF0.0
aF0.0
aF0.0
aF0.0
aF0.0
aF0.0
aF0.0
aF0.0
aF0.0
aF0.0
aF0.0
aF0.0
aF0.0
aF0.0
aF0.0
aF0.0
aF0.0
aF0.0
aF0.0
aF0.0
aF0.0
aF0.0
aF0.0
aF0.0
aF0.0
aF0.0
aF0.0
aF0.0
aF0.0
aF0.0
aF0.0
aF0.0
aF0.0
aF0.0
aF0.0
aF0.0
aF0.0
aF0.0
aF0.0
aF0.0
aF0.0
aF0.0
aF0.0
aF0.0
aF0.0
asVhyperparams/learning_rate
p5
(lp6
F0.10000000149011612
aF0.10000000149011612
aF0.10000000149011612
aF0.10000000149011612
aF0.10000000149011612
aF0.10000000149011612
aF0.10000000149011612
aF0.10000000149011612
aF0.10000000149011612
aF0.10000000149011612
aF0.10000000149011612
aF0.10000000149011612
aF0.10000000149011612
aF0.10000000149011612
aF0.10000000149011612
aF0.10000000149011612
aF0.10000000149011612
aF0.10000000149011612
aF0.10000000149011612
aF0.10000000149011612
aF0.10000000149011612
aF0.10000000149011612
aF0.10000000149011612
aF0.10000000149011612
aF0.10000000149011612
aF0.10000000149011612
aF0.10000000149011612
aF0.10000000149011612
aF0.10000000149011612
aF0.10000000149011612
aF0.10000000149011612
aF0.10000000149011612
aF0.10000000149011612
aF0.10000000149011612
aF0.10000000149011612
aF0.10000000149011612
aF0.10000000149011612
aF0.10000000149011612
aF0.10000000149011612
aF0.10000000149011612
aF0.10000000149011612
aF0.10000000149011612
aF0.10000000149011612
aF0.10000000149011612
aF0.10000000149011612
aF0.10000000149011612
aF0.10000000149011612
aF0.10000000149011612
aF0.10000000149011612
aF0.10000000149011612
aF0.10000000149011612
aF0.10000000149011612
aF0.10000000149011612
aF0.10000000149011612
aF0.10000000149011612
aF0.10000000149011612
aF0.10000000149011612
aF0.10000000149011612
aF0.10000000149011612
aF0.10000000149011612
aF0.10000000149011612
aF0.10000000149011612
aF0.10000000149011612
aF0.10000000149011612
aF0.10000000149011612
aF0.10000000149011612
aF0.10000000149011612
aF0.10000000149011612
aF0.10000000149011612
aF0.10000000149011612
aF0.10000000149011612
aF0.10000000149011612
aF0.10000000149011612
aF0.10000000149011612
aF0.10000000149011612
aF0.10000000149011612
aF0.10000000149011612
aF0.10000000149011612
aF0.10000000149011612
aF0.10000000149011612
aF0.10000000149011612
aF0.10000000149011612
aF0.10000000149011612
aF0.10000000149011612
aF0.10000000149011612
aF0.10000000149011612
aF0.10000000149011612
aF0.10000000149011612
aF0.10000000149011612
aF0.10000000149011612
aF0.10000000149011612
aF0.10000000149011612
aF0.10000000149011612
aF0.10000000149011612
aF0.10000000149011612
aF0.10000000149011612
aF0.10000000149011612
aF0.10000000149011612
aF0.10000000149011612
aF0.10000000149011612
aF0.10000000149011612
asVtime/percentage_convergence_performance
p7
(lp8
F43.44246292114258
aF7.008237361907959
aF5.744187355041504
aF2.553976058959961
aF1.9380550384521484
aF1.9061154127120972
aF1.2944555282592773
aF0.9945362210273743
aF0.9104917049407959
aF0.8374013900756836
aF0.6719624996185303
aF0.6270232200622559
aF0.5986843705177307
aF0.5285989046096802
aF0.5017639994621277
aF0.4790289103984833
aF0.4481154680252075
aF0.42932242155075073
aF0.41343429684638977
aF0.39637985825538635
aF0.38359153270721436
aF0.37232476472854614
aF0.36160197854042053
aF0.3525148928165436
aF0.3445229232311249
aF0.3370044529438019
aF0.3304612934589386
aF0.3245004713535309
aF0.31901004910469055
aF0.31407299637794495
aF0.30952686071395874
aF0.3053416907787323
aF0.30150389671325684
aF0.2979497015476227
aF0.29465752840042114
aF0.2916053235530853
aF0.28876301646232605
aF0.28611379861831665
aF0.28363996744155884
aF0.2813248038291931
aF0.279155433177948
aF0.277119517326355
aF0.27520591020584106
aF0.2734052538871765
aF0.2717084586620331
aF0.27010825276374817
aF0.26859670877456665
aF0.2671683430671692
aF0.26581665873527527
aF0.2645367681980133
aF0.2633236050605774
aF0.26217275857925415
aF0.2610805034637451
aF0.26004284620285034
aF0.2590567171573639
aF0.2581181824207306
aF0.25722527503967285
aF0.25637444853782654
aF0.2555640637874603
aF0.2547909915447235
aF0.2540535628795624
aF0.2533496618270874
aF0.2526775598526001
aF0.2520350217819214
aF0.251421183347702
aF0.25083374977111816
aF0.2502717673778534
aF0.24973388016223907
aF0.24921868741512299
aF0.24872508645057678
aF0.24825185537338257
aF0.247798353433609
aF0.2473631501197815
aF0.246945321559906
aF0.24654443562030792
aF0.2461593598127365
aF0.24578921496868134
aF0.24543383717536926
aF0.24509181082248688
aF0.24476313591003418
aF0.2444467693567276
aF0.24414221942424774
aF0.2438492625951767
aF0.24356697499752045
aF0.24329501390457153
aF0.24303294718265533
aF0.24278037250041962
aF0.24253694713115692
aF0.24230186641216278
aF0.2420753687620163
aF0.2418566197156906
aF0.24164526164531708
aF0.2414415329694748
aF0.24124442040920258
aF0.2410542517900467
aF0.2408703714609146
aF0.24069248139858246
aF0.24052070081233978
aF0.24035432934761047
aF0.24019360542297363
aF0.2400379776954651
asVcheckpoint/checkpoint_test_acc
p9
(lp10
F0.0
aF0.0
aF0.0
aF0.0
aF0.0
aF0.0
aF0.0
aF0.0
aF0.0
aF0.0
aF0.0
aF0.0
aF0.0
aF0.0
aF0.0
aF0.0
aF0.0
aF0.0
aF0.0
aF0.0
aF0.0
aF0.0
aF0.0
aF0.0
aF0.0
aF0.0
aF0.0
aF0.0
aF0.0
aF0.0
aF0.0
aF0.0
aF0.0
aF0.0
aF0.0
aF0.0
aF0.0
aF0.0
aF0.0
aF0.0
aF0.0
aF0.0
aF0.0
aF0.0
aF0.0
aF0.0
aF0.0
aF0.0
aF0.0
aF0.0
aF0.0
aF0.0
aF0.0
aF0.0
aF0.0
aF0.0
aF0.0
aF0.0
aF0.0
aF0.0
aF0.0
aF0.0
aF0.0
aF0.0
aF0.0
aF0.0
aF0.0
aF0.0
aF0.0
aF0.0
aF0.0
aF0.0
aF0.0
aF0.0
aF0.0
aF0.0
aF0.0
aF0.0
aF0.0
aF0.0
aF0.0
aF0.0
aF0.0
aF0.0
aF0.0
aF0.0
aF0.0
aF0.0
aF0.0
aF0.0
aF0.0
aF0.0
aF0.0
aF0.0
aF0.0
aF0.0
aF0.0
aF0.0
aF0.0
aF0.0
aF0.0
asS'training/training_steps'
p11
(lp12
I1
aI11
aI21
aI31
aI41
aI51
aI61
aI71
aI81
aI91
aI101
aI111
aI121
aI131
aI141
aI151
aI161
aI171
aI181
aI191
aI201
aI211
aI221
aI231
aI241
aI251
aI261
aI271
aI281
aI291
aI301
aI311
aI321
aI331
aI341
aI351
aI361
aI371
aI381
aI391
aI401
aI411
aI421
aI431
aI441
aI451
aI461
aI471
aI481
aI491
aI501
aI511
aI521
aI531
aI541
aI551
aI561
aI571
aI581
aI591
aI601
aI611
aI621
aI631
aI641
aI651
aI661
aI671
aI681
aI691
aI701
aI711
aI721
aI731
aI741
aI751
aI761
aI771
aI781
aI791
asVhyperparams/batch_size
p13
(lp14
F128.0
aF128.0
aF128.0
aF128.0
aF128.0
aF128.0
aF128.0
aF128.0
aF128.0
aF128.0
aF128.0
aF128.0
aF128.0
aF128.0
aF128.0
aF128.0
aF128.0
aF128.0
aF128.0
aF128.0
aF128.0
aF128.0
aF128.0
aF128.0
aF128.0
aF128.0
aF128.0
aF128.0
aF128.0
aF128.0
aF128.0
aF128.0
aF128.0
aF128.0
aF128.0
aF128.0
aF128.0
aF128.0
aF128.0
aF128.0
aF128.0
aF128.0
aF128.0
aF128.0
aF128.0
aF128.0
aF128.0
aF128.0
aF128.0
aF128.0
aF128.0
aF128.0
aF128.0
aF128.0
aF128.0
aF128.0
aF128.0
aF128.0
aF128.0
aF128.0
aF128.0
aF128.0
aF128.0
aF128.0
aF128.0
aF128.0
aF128.0
aF128.0
aF128.0
aF128.0
aF128.0
aF128.0
aF128.0
aF128.0
aF128.0
aF128.0
aF128.0
aF128.0
aF128.0
aF128.0
aF128.0
aF128.0
aF128.0
aF128.0
aF128.0
aF128.0
aF128.0
aF128.0
aF128.0
aF128.0
aF128.0
aF128.0
aF128.0
aF128.0
aF128.0
aF128.0
aF128.0
aF128.0
aF128.0
aF128.0
aF128.0
asS'args'
p15
ccopy_reg
_reconstructor
p16
(cargparse
Namespace
p17
c__builtin__
object
p18
Ntp19
Rp20
(dp21
S'wd'
p22
NsS'data_dir'
p23
S'data'
p24
sS'epsilon'
p25
F1e-08
sS'nologs'
p26
I00
sS'num_epochs'
p27
I100
sS'lr_sched_epochs'
p28
NsS'saveto'
p29
S'res/benchmark_small_final/'
p30
sS'lr_sched_factors'
p31
NsS'train_log_interval'
p32
I10
sS'checkpoint_epochs'
p33
I1
sS'print_train_iter'
p34
I00
sS'lr'
p35
F0.1
sS'beta2'
p36
F0.999
sS'beta1'
p37
F0.9
sS'bs'
p38
I128
sS'pickle'
p39
I01
sS'random_seed'
p40
I46
sS'no_time'
p41
I00
sS'test_problem'
p42
S'quadratic.noisy_quadratic'
p43
sS'run_name'
p44
S'Adam/'
p45
sbsVhyperparams/beta2
p46
(lp47
F0.9990000128746033
aF0.9990000128746033
aF0.9990000128746033
aF0.9990000128746033
aF0.9990000128746033
aF0.9990000128746033
aF0.9990000128746033
aF0.9990000128746033
aF0.9990000128746033
aF0.9990000128746033
aF0.9990000128746033
aF0.9990000128746033
aF0.9990000128746033
aF0.9990000128746033
aF0.9990000128746033
aF0.9990000128746033
aF0.9990000128746033
aF0.9990000128746033
aF0.9990000128746033
aF0.9990000128746033
aF0.9990000128746033
aF0.9990000128746033
aF0.9990000128746033
aF0.9990000128746033
aF0.9990000128746033
aF0.9990000128746033
aF0.9990000128746033
aF0.9990000128746033
aF0.9990000128746033
aF0.9990000128746033
aF0.9990000128746033
aF0.9990000128746033
aF0.9990000128746033
aF0.9990000128746033
aF0.9990000128746033
aF0.9990000128746033
aF0.9990000128746033
aF0.9990000128746033
aF0.9990000128746033
aF0.9990000128746033
aF0.9990000128746033
aF0.9990000128746033
aF0.9990000128746033
aF0.9990000128746033
aF0.9990000128746033
aF0.9990000128746033
aF0.9990000128746033
aF0.9990000128746033
aF0.9990000128746033
aF0.9990000128746033
aF0.9990000128746033
aF0.9990000128746033
aF0.9990000128746033
aF0.9990000128746033
aF0.9990000128746033
aF0.9990000128746033
aF0.9990000128746033
aF0.9990000128746033
aF0.9990000128746033
aF0.9990000128746033
aF0.9990000128746033
aF0.9990000128746033
aF0.9990000128746033
aF0.9990000128746033
aF0.9990000128746033
aF0.9990000128746033
aF0.9990000128746033
aF0.9990000128746033
aF0.9990000128746033
aF0.9990000128746033
aF0.9990000128746033
aF0.9990000128746033
aF0.9990000128746033
aF0.9990000128746033
aF0.9990000128746033
aF0.9990000128746033
aF0.9990000128746033
aF0.9990000128746033
aF0.9990000128746033
aF0.9990000128746033
aF0.9990000128746033
aF0.9990000128746033
aF0.9990000128746033
aF0.9990000128746033
aF0.9990000128746033
aF0.9990000128746033
aF0.9990000128746033
aF0.9990000128746033
aF0.9990000128746033
aF0.9990000128746033
aF0.9990000128746033
aF0.9990000128746033
aF0.9990000128746033
aF0.9990000128746033
aF0.9990000128746033
aF0.9990000128746033
aF0.9990000128746033
aF0.9990000128746033
aF0.9990000128746033
aF0.9990000128746033
aF0.9990000128746033
asVtraining/training_loss
p48
(lp49
F370.567626953125
aF80.6012191772461
aF28.832355499267578
aF56.38597106933594
aF16.56390380859375
aF19.16561508178711
aF14.83986759185791
aF28.405128479003906
aF14.458620071411133
aF16.461519241333008
aF13.125219345092773
aF28.591835021972656
aF12.612298965454102
aF15.496400833129883
aF12.377695083618164
aF27.685955047607422
aF12.111763000488281
aF15.22017765045166
aF12.02082633972168
aF27.371925354003906
aF11.856535911560059
aF15.055078506469727
aF11.840627670288086
aF27.221744537353516
aF11.717428207397461
aF14.966214179992676
aF11.732536315917969
aF27.130958557128906
aF11.633676528930664
aF14.912982940673828
aF11.664300918579102
aF27.072641372680664
aF11.578948020935059
aF14.877967834472656
aF11.619405746459961
aF27.032989501953125
aF11.541091918945312
aF14.853452682495117
aF11.58908462524414
aF27.004974365234375
aF11.513879776000977
aF14.835508346557617
aF11.568317413330078
aF26.984718322753906
aF11.493790626525879
aF14.822015762329102
aF11.55405330657959
aF26.969886779785156
aF11.478657722473145
aF14.81169319152832
aF11.544323921203613
aF26.958965301513672
aF11.46709156036377
aF14.803728103637695
aF11.537790298461914
aF26.950944900512695
aF11.458127975463867
aF14.79755973815918
aF11.533544540405273
aF26.945106506347656
aF11.451095581054688
aF14.792773246765137
aF11.530937194824219
aF26.940942764282227
aF11.445513725280762
aF14.7890625
aF11.529512405395508
aF26.93805503845215
aF11.441032409667969
aF14.786190032958984
aF11.528940200805664
aF26.936155319213867
aF11.437394142150879
aF14.783974647521973
aF11.528976440429688
aF26.935022354125977
aF11.434407234191895
aF14.78227424621582
aF11.529448509216309
aF26.934480667114258
asVcheckpoint/checkpoint_train_loss
p50
(lp51
F312.5793151855469
aF53.70832061767578
aF45.4116325378418
aF32.98876190185547
aF26.927356719970703
aF24.44252586364746
aF21.339405059814453
aF20.633352279663086
aF19.212093353271484
aF18.56859016418457
aF18.043493270874023
aF17.57904815673828
aF17.262115478515625
aF16.997739791870117
aF16.780513763427734
aF16.601062774658203
aF16.453413009643555
aF16.327335357666016
aF16.217994689941406
aF16.12575912475586
aF16.044416427612305
aF15.97305965423584
aF15.91073989868164
aF15.855010032653809
aF15.80541706085205
aF15.761040687561035
aF15.72095012664795
aF15.684721946716309
aF15.651803016662598
aF15.621753692626953
aF15.594256401062012
aF15.568992614746094
aF15.545717239379883
aF15.524205207824707
aF15.50428295135498
aF15.485774993896484
aF15.468551635742188
aF15.452485084533691
aF15.43747329711914
aF15.423420906066895
aF15.41024398803711
aF15.397868156433105
aF15.38623332977295
aF15.375276565551758
aF15.364946365356445
aF15.35519790649414
aF15.345986366271973
aF15.337272644042969
aF15.32902717590332
aF15.321212768554688
aF15.313801765441895
aF15.306769371032715
aF15.300091743469238
aF15.293743133544922
aF15.287704467773438
aF15.281959533691406
aF15.276488304138184
aF15.27127456665039
aF15.266304016113281
aF15.261563301086426
aF15.257037162780762
aF15.252717971801758
aF15.248588562011719
aF15.244641304016113
aF15.240866661071777
aF15.237257957458496
aF15.233800888061523
aF15.230489730834961
aF15.227320671081543
aF15.224281311035156
aF15.221366882324219
aF15.218572616577148
aF15.215890884399414
aF15.213316917419434
aF15.210843086242676
aF15.20846939086914
aF15.206188201904297
aF15.203991889953613
aF15.201883316040039
aF15.19985294342041
aF15.19789981842041
aF15.19601821899414
aF15.194208145141602
aF15.192462921142578
aF15.19078254699707
aF15.18916130065918
aF15.187600135803223
aF15.1860933303833
aF15.184638023376465
aF15.183235168457031
aF15.181879997253418
aF15.180572509765625
aF15.17930793762207
aF15.17808723449707
aF15.17690658569336
aF15.175765991210938
aF15.174664497375488
aF15.173595428466797
aF15.172564506530762
aF15.171565055847168
aF15.170597076416016
asVhyperparams/beta1
p52
(lp53
F0.8999999761581421
aF0.8999999761581421
aF0.8999999761581421
aF0.8999999761581421
aF0.8999999761581421
aF0.8999999761581421
aF0.8999999761581421
aF0.8999999761581421
aF0.8999999761581421
aF0.8999999761581421
aF0.8999999761581421
aF0.8999999761581421
aF0.8999999761581421
aF0.8999999761581421
aF0.8999999761581421
aF0.8999999761581421
aF0.8999999761581421
aF0.8999999761581421
aF0.8999999761581421
aF0.8999999761581421
aF0.8999999761581421
aF0.8999999761581421
aF0.8999999761581421
aF0.8999999761581421
aF0.8999999761581421
aF0.8999999761581421
aF0.8999999761581421
aF0.8999999761581421
aF0.8999999761581421
aF0.8999999761581421
aF0.8999999761581421
aF0.8999999761581421
aF0.8999999761581421
aF0.8999999761581421
aF0.8999999761581421
aF0.8999999761581421
aF0.8999999761581421
aF0.8999999761581421
aF0.8999999761581421
aF0.8999999761581421
aF0.8999999761581421
aF0.8999999761581421
aF0.8999999761581421
aF0.8999999761581421
aF0.8999999761581421
aF0.8999999761581421
aF0.8999999761581421
aF0.8999999761581421
aF0.8999999761581421
aF0.8999999761581421
aF0.8999999761581421
aF0.8999999761581421
aF0.8999999761581421
aF0.8999999761581421
aF0.8999999761581421
aF0.8999999761581421
aF0.8999999761581421
aF0.8999999761581421
aF0.8999999761581421
aF0.8999999761581421
aF0.8999999761581421
aF0.8999999761581421
aF0.8999999761581421
aF0.8999999761581421
aF0.8999999761581421
aF0.8999999761581421
aF0.8999999761581421
aF0.8999999761581421
aF0.8999999761581421
aF0.8999999761581421
aF0.8999999761581421
aF0.8999999761581421
aF0.8999999761581421
aF0.8999999761581421
aF0.8999999761581421
aF0.8999999761581421
aF0.8999999761581421
aF0.8999999761581421
aF0.8999999761581421
aF0.8999999761581421
aF0.8999999761581421
aF0.8999999761581421
aF0.8999999761581421
aF0.8999999761581421
aF0.8999999761581421
aF0.8999999761581421
aF0.8999999761581421
aF0.8999999761581421
aF0.8999999761581421
aF0.8999999761581421
aF0.8999999761581421
aF0.8999999761581421
aF0.8999999761581421
aF0.8999999761581421
aF0.8999999761581421
aF0.8999999761581421
aF0.8999999761581421
aF0.8999999761581421
aF0.8999999761581421
aF0.8999999761581421
aF0.8999999761581421
asVcheckpoint/checkpoint_test_loss
p54
(lp55
F278.4661865234375
aF44.92280197143555
aF36.82024002075195
aF16.370986938476562
aF12.422932624816895
aF12.218199729919434
aF8.297459602355957
aF6.374977111816406
aF5.836251735687256
aF5.367743015289307
aF4.307279586791992
aF4.019218921661377
aF3.83756685256958
aF3.3883190155029297
aF3.2163071632385254
aF3.07057523727417
aF2.872420072555542
aF2.7519567012786865
aF2.650113821029663
aF2.540794849395752
aF2.4588217735290527
aF2.386601686477661
aF2.317868709564209
aF2.259620428085327
aF2.2083919048309326
aF2.160198450088501
aF2.1182568073272705
aF2.080048084259033
aF2.0448544025421143
aF2.0132079124450684
aF1.9840672016143799
aF1.9572402238845825
aF1.9326399564743042
aF1.9098576307296753
aF1.8887547254562378
aF1.8691900968551636
aF1.8509708642959595
aF1.8339893817901611
aF1.8181321620941162
aF1.803291916847229
aF1.78938627243042
aF1.7763361930847168
aF1.7640697956085205
aF1.7525275945663452
aF1.7416512966156006
aF1.731393814086914
aF1.7217049598693848
aF1.712549090385437
aF1.7038847208023071
aF1.6956807374954224
aF1.6879043579101562
aF1.6805273294448853
aF1.6735260486602783
aF1.666874647140503
aF1.6605535745620728
aF1.654537558555603
aF1.6488139629364014
aF1.6433602571487427
aF1.6381655931472778
aF1.6332101821899414
aF1.6284834146499634
aF1.6239713430404663
aF1.6196632385253906
aF1.6155444383621216
aF1.611609697341919
aF1.607844352722168
aF1.604241967201233
aF1.6007941961288452
aF1.59749174118042
aF1.5943278074264526
aF1.5912944078445435
aF1.5883874893188477
aF1.5855977535247803
aF1.5829194784164429
aF1.5803498029708862
aF1.5778814554214478
aF1.5755088329315186
aF1.5732308626174927
aF1.5710384845733643
aF1.5689316987991333
aF1.566903829574585
aF1.5649516582489014
aF1.563073754310608
aF1.5612642765045166
aF1.5595210790634155
aF1.557841181755066
aF1.5562222003936768
aF1.5546618700027466
aF1.5531549453735352
aF1.5517030954360962
aF1.5503009557724
aF1.5489461421966553
aF1.5476402044296265
aF1.5463767051696777
aF1.545157790184021
aF1.5439790487289429
aF1.5428388118743896
aF1.541737675666809
aF1.5406712293624878
aF1.53964102268219
aF1.538643479347229
asVtime/convergence_iterations
p56
(lp57
F0.0
aF0.0
aF0.0
aF0.0
aF0.0
aF0.0
aF0.0
aF7.0
aF7.0
aF7.0
aF7.0
aF7.0
aF7.0
aF7.0
aF7.0
aF7.0
aF7.0
aF7.0
aF7.0
aF7.0
aF7.0
aF7.0
aF7.0
aF7.0
aF7.0
aF7.0
aF7.0
aF7.0
aF7.0
aF7.0
aF7.0
aF7.0
aF7.0
aF7.0
aF7.0
aF7.0
aF7.0
aF7.0
aF7.0
aF7.0
aF7.0
aF7.0
aF7.0
aF7.0
aF7.0
aF7.0
aF7.0
aF7.0
aF7.0
aF7.0
aF7.0
aF7.0
aF7.0
aF7.0
aF7.0
aF7.0
aF7.0
aF7.0
aF7.0
aF7.0
aF7.0
aF7.0
aF7.0
aF7.0
aF7.0
aF7.0
aF7.0
aF7.0
aF7.0
aF7.0
aF7.0
aF7.0
aF7.0
aF7.0
aF7.0
aF7.0
aF7.0
aF7.0
aF7.0
aF7.0
aF7.0
aF7.0
aF7.0
aF7.0
aF7.0
aF7.0
aF7.0
aF7.0
aF7.0
aF7.0
aF7.0
aF7.0
aF7.0
aF7.0
aF7.0
aF7.0
aF7.0
aF7.0
aF7.0
aF7.0
aF7.0
as.