(dp0
S'checkpoint/checkpoint_steps'
p1
(lp2
I0
aI1
aI2
aI3
aI4
aI5
aI6
aI7
aI8
aI9
aI10
aI11
aI12
aI13
aI14
aI15
aI16
aI17
aI18
aI19
aI20
aI21
aI22
aI23
aI24
aI25
aI26
aI27
aI28
aI29
aI30
aI31
aI32
aI33
aI34
aI35
aI36
aI37
aI38
aI39
aI40
aI41
aI42
aI43
aI44
aI45
aI46
aI47
aI48
aI49
aI50
aI51
aI52
aI53
aI54
aI55
aI56
aI57
aI58
aI59
aI60
aI61
aI62
aI63
aI64
aI65
aI66
aI67
aI68
aI69
aI70
aI71
aI72
aI73
aI74
aI75
aI76
aI77
aI78
aI79
aI80
aI81
aI82
aI83
aI84
aI85
aI86
aI87
aI88
aI89
aI90
aI91
aI92
aI93
aI94
aI95
aI96
aI97
aI98
aI99
aI100
asVcheckpoint/checkpoint_train_acc
p3
(lp4
F0.0
aF0.0
aF0.0
aF0.0
aF0.0
aF0.0
aF0.0
aF0.0
aF0.0
aF0.0
aF0.0
aF0.0
aF0.0
aF0.0
aF0.0
aF0.0
aF0.0
aF0.0
aF0.0
aF0.0
aF0.0
aF0.0
aF0.0
aF0.0
aF0.0
aF0.0
aF0.0
aF0.0
aF0.0
aF0.0
aF0.0
aF0.0
aF0.0
aF0.0
aF0.0
aF0.0
aF0.0
aF0.0
aF0.0
aF0.0
aF0.0
aF0.0
aF0.0
aF0.0
aF0.0
aF0.0
aF0.0
aF0.0
aF0.0
aF0.0
aF0.0
aF0.0
aF0.0
aF0.0
aF0.0
aF0.0
aF0.0
aF0.0
aF0.0
aF0.0
aF0.0
aF0.0
aF0.0
aF0.0
aF0.0
aF0.0
aF0.0
aF0.0
aF0.0
aF0.0
aF0.0
aF0.0
aF0.0
aF0.0
aF0.0
aF0.0
aF0.0
aF0.0
aF0.0
aF0.0
aF0.0
aF0.0
aF0.0
aF0.0
aF0.0
aF0.0
aF0.0
aF0.0
aF0.0
aF0.0
aF0.0
aF0.0
aF0.0
aF0.0
aF0.0
aF0.0
aF0.0
aF0.0
aF0.0
aF0.0
aF0.0
asVhyperparams/learning_rate
p5
(lp6
F0.10000000149011612
aF0.10000000149011612
aF0.10000000149011612
aF0.10000000149011612
aF0.10000000149011612
aF0.10000000149011612
aF0.10000000149011612
aF0.10000000149011612
aF0.10000000149011612
aF0.10000000149011612
aF0.10000000149011612
aF0.10000000149011612
aF0.10000000149011612
aF0.10000000149011612
aF0.10000000149011612
aF0.10000000149011612
aF0.10000000149011612
aF0.10000000149011612
aF0.10000000149011612
aF0.10000000149011612
aF0.10000000149011612
aF0.10000000149011612
aF0.10000000149011612
aF0.10000000149011612
aF0.10000000149011612
aF0.10000000149011612
aF0.10000000149011612
aF0.10000000149011612
aF0.10000000149011612
aF0.10000000149011612
aF0.10000000149011612
aF0.10000000149011612
aF0.10000000149011612
aF0.10000000149011612
aF0.10000000149011612
aF0.10000000149011612
aF0.10000000149011612
aF0.10000000149011612
aF0.10000000149011612
aF0.10000000149011612
aF0.10000000149011612
aF0.10000000149011612
aF0.10000000149011612
aF0.10000000149011612
aF0.10000000149011612
aF0.10000000149011612
aF0.10000000149011612
aF0.10000000149011612
aF0.10000000149011612
aF0.10000000149011612
aF0.10000000149011612
aF0.10000000149011612
aF0.10000000149011612
aF0.10000000149011612
aF0.10000000149011612
aF0.10000000149011612
aF0.10000000149011612
aF0.10000000149011612
aF0.10000000149011612
aF0.10000000149011612
aF0.10000000149011612
aF0.10000000149011612
aF0.10000000149011612
aF0.10000000149011612
aF0.10000000149011612
aF0.10000000149011612
aF0.10000000149011612
aF0.10000000149011612
aF0.10000000149011612
aF0.10000000149011612
aF0.10000000149011612
aF0.10000000149011612
aF0.10000000149011612
aF0.10000000149011612
aF0.10000000149011612
aF0.10000000149011612
aF0.10000000149011612
aF0.10000000149011612
aF0.10000000149011612
aF0.10000000149011612
aF0.10000000149011612
aF0.10000000149011612
aF0.10000000149011612
aF0.10000000149011612
aF0.10000000149011612
aF0.10000000149011612
aF0.10000000149011612
aF0.10000000149011612
aF0.10000000149011612
aF0.10000000149011612
aF0.10000000149011612
aF0.10000000149011612
aF0.10000000149011612
aF0.10000000149011612
aF0.10000000149011612
aF0.10000000149011612
aF0.10000000149011612
aF0.10000000149011612
aF0.10000000149011612
aF0.10000000149011612
aF0.10000000149011612
asVtime/percentage_convergence_performance
p7
(lp8
F47.92515182495117
aF7.7021050453186035
aF6.684878349304199
aF2.9361813068389893
aF2.2768490314483643
aF2.542606830596924
aF1.753636360168457
aF1.3766371011734009
aF1.3351393938064575
aF1.2329376935958862
aF1.0049664974212646
aF0.9555556774139404
aF0.9091287851333618
aF0.8092328310012817
aF0.772208571434021
aF0.7369502782821655
aF0.6923015117645264
aF0.6655088067054749
aF0.6419755220413208
aF0.6178820729255676
aF0.5996785759925842
aF0.583996057510376
aF0.5689355731010437
aF0.5566018223762512
aF0.5456388592720032
aF0.5354898571968079
aF0.5267679691314697
aF0.5188366770744324
aF0.5116150379180908
aF0.5051808953285217
aF0.49928387999534607
aF0.493909627199173
aF0.4890159070491791
aF0.4845145344734192
aF0.48037874698638916
aF0.4765723645687103
aF0.47305160760879517
aF0.46979618072509766
aF0.4667779505252838
aF0.4639734923839569
aF0.46136584877967834
aF0.4589366912841797
aF0.456670343875885
aF0.4545546770095825
aF0.4525763988494873
aF0.45072534680366516
aF0.44899141788482666
aF0.44736602902412415
aF0.44584083557128906
aF0.44440925121307373
aF0.44306379556655884
aF0.4417998790740967
aF0.44061002135276794
aF0.4394907057285309
aF0.43843692541122437
aF0.4374438524246216
aF0.4365086257457733
aF0.4356266260147095
aF0.43479472398757935
aF0.43400993943214417
aF0.4332693815231323
aF0.432570219039917
aF0.43191012740135193
aF0.4312863051891327
aF0.4306974411010742
aF0.4301407039165497
aF0.42961424589157104
aF0.4291170537471771
aF0.428646445274353
aF0.4282015562057495
aF0.4277805685997009
aF0.42738258838653564
aF0.4270055592060089
aF0.4266490936279297
aF0.4263116419315338
aF0.4259921908378601
aF0.4256897270679474
aF0.4254032373428345
aF0.4251320958137512
aF0.42487525939941406
aF0.42463189363479614
aF0.4244014322757721
aF0.42418333888053894
aF0.4239763617515564
aF0.42378079891204834
aF0.4235948920249939
aF0.42341938614845276
aF0.4232526421546936
aF0.42309489846229553
aF0.4229455888271332
aF0.42280372977256775
aF0.4226696193218231
aF0.42254239320755005
aF0.4224221110343933
aF0.4223078191280365
aF0.42219996452331543
aF0.42209744453430176
aF0.4220006763935089
aF0.4219086468219757
aF0.4218220114707947
aF0.4217395484447479
asVcheckpoint/checkpoint_test_acc
p9
(lp10
F0.0
aF0.0
aF0.0
aF0.0
aF0.0
aF0.0
aF0.0
aF0.0
aF0.0
aF0.0
aF0.0
aF0.0
aF0.0
aF0.0
aF0.0
aF0.0
aF0.0
aF0.0
aF0.0
aF0.0
aF0.0
aF0.0
aF0.0
aF0.0
aF0.0
aF0.0
aF0.0
aF0.0
aF0.0
aF0.0
aF0.0
aF0.0
aF0.0
aF0.0
aF0.0
aF0.0
aF0.0
aF0.0
aF0.0
aF0.0
aF0.0
aF0.0
aF0.0
aF0.0
aF0.0
aF0.0
aF0.0
aF0.0
aF0.0
aF0.0
aF0.0
aF0.0
aF0.0
aF0.0
aF0.0
aF0.0
aF0.0
aF0.0
aF0.0
aF0.0
aF0.0
aF0.0
aF0.0
aF0.0
aF0.0
aF0.0
aF0.0
aF0.0
aF0.0
aF0.0
aF0.0
aF0.0
aF0.0
aF0.0
aF0.0
aF0.0
aF0.0
aF0.0
aF0.0
aF0.0
aF0.0
aF0.0
aF0.0
aF0.0
aF0.0
aF0.0
aF0.0
aF0.0
aF0.0
aF0.0
aF0.0
aF0.0
aF0.0
aF0.0
aF0.0
aF0.0
aF0.0
aF0.0
aF0.0
aF0.0
aF0.0
asS'training/training_steps'
p11
(lp12
I1
aI11
aI21
aI31
aI41
aI51
aI61
aI71
aI81
aI91
aI101
aI111
aI121
aI131
aI141
aI151
aI161
aI171
aI181
aI191
aI201
aI211
aI221
aI231
aI241
aI251
aI261
aI271
aI281
aI291
aI301
aI311
aI321
aI331
aI341
aI351
aI361
aI371
aI381
aI391
aI401
aI411
aI421
aI431
aI441
aI451
aI461
aI471
aI481
aI491
aI501
aI511
aI521
aI531
aI541
aI551
aI561
aI571
aI581
aI591
aI601
aI611
aI621
aI631
aI641
aI651
aI661
aI671
aI681
aI691
aI701
aI711
aI721
aI731
aI741
aI751
aI761
aI771
aI781
aI791
asVhyperparams/batch_size
p13
(lp14
F128.0
aF128.0
aF128.0
aF128.0
aF128.0
aF128.0
aF128.0
aF128.0
aF128.0
aF128.0
aF128.0
aF128.0
aF128.0
aF128.0
aF128.0
aF128.0
aF128.0
aF128.0
aF128.0
aF128.0
aF128.0
aF128.0
aF128.0
aF128.0
aF128.0
aF128.0
aF128.0
aF128.0
aF128.0
aF128.0
aF128.0
aF128.0
aF128.0
aF128.0
aF128.0
aF128.0
aF128.0
aF128.0
aF128.0
aF128.0
aF128.0
aF128.0
aF128.0
aF128.0
aF128.0
aF128.0
aF128.0
aF128.0
aF128.0
aF128.0
aF128.0
aF128.0
aF128.0
aF128.0
aF128.0
aF128.0
aF128.0
aF128.0
aF128.0
aF128.0
aF128.0
aF128.0
aF128.0
aF128.0
aF128.0
aF128.0
aF128.0
aF128.0
aF128.0
aF128.0
aF128.0
aF128.0
aF128.0
aF128.0
aF128.0
aF128.0
aF128.0
aF128.0
aF128.0
aF128.0
aF128.0
aF128.0
aF128.0
aF128.0
aF128.0
aF128.0
aF128.0
aF128.0
aF128.0
aF128.0
aF128.0
aF128.0
aF128.0
aF128.0
aF128.0
aF128.0
aF128.0
aF128.0
aF128.0
aF128.0
aF128.0
asS'args'
p15
ccopy_reg
_reconstructor
p16
(cargparse
Namespace
p17
c__builtin__
object
p18
Ntp19
Rp20
(dp21
S'wd'
p22
NsS'data_dir'
p23
S'data'
p24
sS'epsilon'
p25
F1e-08
sS'nologs'
p26
I00
sS'num_epochs'
p27
I100
sS'lr_sched_epochs'
p28
NsS'saveto'
p29
S'res/benchmark_small_final/'
p30
sS'lr_sched_factors'
p31
NsS'train_log_interval'
p32
I10
sS'checkpoint_epochs'
p33
I1
sS'print_train_iter'
p34
I00
sS'lr'
p35
F0.1
sS'beta2'
p36
F0.999
sS'beta1'
p37
F0.9
sS'bs'
p38
I128
sS'pickle'
p39
I01
sS'random_seed'
p40
I51
sS'no_time'
p41
I00
sS'test_problem'
p42
S'quadratic.noisy_quadratic'
p43
sS'run_name'
p44
S'Adam/'
p45
sbsVhyperparams/beta2
p46
(lp47
F0.9990000128746033
aF0.9990000128746033
aF0.9990000128746033
aF0.9990000128746033
aF0.9990000128746033
aF0.9990000128746033
aF0.9990000128746033
aF0.9990000128746033
aF0.9990000128746033
aF0.9990000128746033
aF0.9990000128746033
aF0.9990000128746033
aF0.9990000128746033
aF0.9990000128746033
aF0.9990000128746033
aF0.9990000128746033
aF0.9990000128746033
aF0.9990000128746033
aF0.9990000128746033
aF0.9990000128746033
aF0.9990000128746033
aF0.9990000128746033
aF0.9990000128746033
aF0.9990000128746033
aF0.9990000128746033
aF0.9990000128746033
aF0.9990000128746033
aF0.9990000128746033
aF0.9990000128746033
aF0.9990000128746033
aF0.9990000128746033
aF0.9990000128746033
aF0.9990000128746033
aF0.9990000128746033
aF0.9990000128746033
aF0.9990000128746033
aF0.9990000128746033
aF0.9990000128746033
aF0.9990000128746033
aF0.9990000128746033
aF0.9990000128746033
aF0.9990000128746033
aF0.9990000128746033
aF0.9990000128746033
aF0.9990000128746033
aF0.9990000128746033
aF0.9990000128746033
aF0.9990000128746033
aF0.9990000128746033
aF0.9990000128746033
aF0.9990000128746033
aF0.9990000128746033
aF0.9990000128746033
aF0.9990000128746033
aF0.9990000128746033
aF0.9990000128746033
aF0.9990000128746033
aF0.9990000128746033
aF0.9990000128746033
aF0.9990000128746033
aF0.9990000128746033
aF0.9990000128746033
aF0.9990000128746033
aF0.9990000128746033
aF0.9990000128746033
aF0.9990000128746033
aF0.9990000128746033
aF0.9990000128746033
aF0.9990000128746033
aF0.9990000128746033
aF0.9990000128746033
aF0.9990000128746033
aF0.9990000128746033
aF0.9990000128746033
aF0.9990000128746033
aF0.9990000128746033
aF0.9990000128746033
aF0.9990000128746033
aF0.9990000128746033
aF0.9990000128746033
aF0.9990000128746033
aF0.9990000128746033
aF0.9990000128746033
aF0.9990000128746033
aF0.9990000128746033
aF0.9990000128746033
aF0.9990000128746033
aF0.9990000128746033
aF0.9990000128746033
aF0.9990000128746033
aF0.9990000128746033
aF0.9990000128746033
aF0.9990000128746033
aF0.9990000128746033
aF0.9990000128746033
aF0.9990000128746033
aF0.9990000128746033
aF0.9990000128746033
aF0.9990000128746033
aF0.9990000128746033
aF0.9990000128746033
asVtraining/training_loss
p48
(lp49
F348.31109619140625
aF47.948707580566406
aF37.32716369628906
aF36.535743713378906
aF27.67009162902832
aF34.205589294433594
aF27.16314125061035
aF17.98837661743164
aF20.75862693786621
aF28.120864868164062
aF23.827178955078125
aF16.219879150390625
aF18.619525909423828
aF26.614559173583984
aF22.792469024658203
aF15.074594497680664
aF17.69973373413086
aF25.674644470214844
aF22.40703582763672
aF14.577259063720703
aF17.220645904541016
aF25.24207305908203
aF22.22835922241211
aF14.316183090209961
aF16.941364288330078
aF24.995248794555664
aF22.13434600830078
aF14.15918254852295
aF16.765106201171875
aF24.84408950805664
aF22.08042335510254
aF14.058000564575195
aF16.647512435913086
aF24.74738311767578
aF22.04819679260254
aF13.989502906799316
aF16.566051483154297
aF24.683576583862305
aF22.02890396118164
aF13.941638946533203
aF16.50812530517578
aF24.64073371887207
aF22.017776489257812
aF13.90754222869873
aF16.466217041015625
aF24.61176300048828
aF22.011981964111328
aF13.882978439331055
aF16.43552017211914
aF24.592212677001953
aF22.009719848632812
aF13.865179061889648
aF16.412857055664062
aF24.579153060913086
aF22.009780883789062
aF13.852255821228027
aF16.396041870117188
aF24.570636749267578
aF22.0113468170166
aF13.842893600463867
aF16.383546829223633
aF24.565311431884766
aF22.013858795166016
aF13.836149215698242
aF16.374258041381836
aF24.562219619750977
aF22.016921997070312
aF13.831345558166504
aF16.36737632751465
aF24.560733795166016
aF22.02027702331543
aF13.827981948852539
aF16.3623046875
aF24.560348510742188
aF22.023733139038086
aF13.825691223144531
aF16.358617782592773
aF24.560741424560547
aF22.027179718017578
aF13.824197769165039
asVcheckpoint/checkpoint_train_loss
p50
(lp51
F349.54241943359375
aF59.26121520996094
aF53.882896423339844
aF39.448081970214844
aF33.37300109863281
aF31.26719093322754
aF27.69118881225586
aF26.709346771240234
aF25.18832015991211
aF24.340620040893555
aF23.54863166809082
aF22.931245803833008
aF22.468549728393555
aF22.03528594970703
aF21.709537506103516
aF21.427963256835938
aF21.185583114624023
aF20.986669540405273
aF20.812435150146484
aF20.663497924804688
aF20.53422737121582
aF20.421424865722656
aF20.322437286376953
aF20.23495864868164
aF20.15762710571289
aF20.088483810424805
aF20.026716232299805
aF19.971208572387695
aF19.92107391357422
aF19.875747680664062
aF19.834548950195312
aF19.797025680541992
aF19.76275062561035
aF19.73135757446289
aF19.70254135131836
aF19.676034927368164
aF19.651599884033203
aF19.629037857055664
aF19.60816764831543
aF19.588836669921875
aF19.57090187072754
aF19.554244995117188
aF19.538753509521484
aF19.52433204650879
aF19.51089096069336
aF19.498353958129883
aF19.486652374267578
aF19.47571563720703
aF19.465492248535156
aF19.4559268951416
aF19.44696807861328
aF19.438581466674805
aF19.43071746826172
aF19.423341751098633
aF19.41642189025879
aF19.409927368164062
aF19.40382957458496
aF19.398101806640625
aF19.392717361450195
aF19.38765525817871
aF19.382896423339844
aF19.37841796875
aF19.37420654296875
aF19.3702392578125
aF19.366506576538086
aF19.362991333007812
aF19.35968017578125
aF19.356557846069336
aF19.353618621826172
aF19.350847244262695
aF19.348234176635742
aF19.34577178955078
aF19.343446731567383
aF19.34125518798828
aF19.339189529418945
aF19.337236404418945
aF19.335397720336914
aF19.333660125732422
aF19.332021713256836
aF19.330472946166992
aF19.329010009765625
aF19.3276309967041
aF19.32632827758789
aF19.325098037719727
aF19.323936462402344
aF19.322837829589844
aF19.321802139282227
aF19.32082176208496
aF19.319896697998047
aF19.31902313232422
aF19.318195343017578
aF19.31741714477539
aF19.316680908203125
aF19.315982818603516
aF19.315324783325195
aF19.3147029876709
aF19.31411361694336
aF19.31355857849121
aF19.313034057617188
aF19.31254005432129
aF19.31207275390625
asVhyperparams/beta1
p52
(lp53
F0.8999999761581421
aF0.8999999761581421
aF0.8999999761581421
aF0.8999999761581421
aF0.8999999761581421
aF0.8999999761581421
aF0.8999999761581421
aF0.8999999761581421
aF0.8999999761581421
aF0.8999999761581421
aF0.8999999761581421
aF0.8999999761581421
aF0.8999999761581421
aF0.8999999761581421
aF0.8999999761581421
aF0.8999999761581421
aF0.8999999761581421
aF0.8999999761581421
aF0.8999999761581421
aF0.8999999761581421
aF0.8999999761581421
aF0.8999999761581421
aF0.8999999761581421
aF0.8999999761581421
aF0.8999999761581421
aF0.8999999761581421
aF0.8999999761581421
aF0.8999999761581421
aF0.8999999761581421
aF0.8999999761581421
aF0.8999999761581421
aF0.8999999761581421
aF0.8999999761581421
aF0.8999999761581421
aF0.8999999761581421
aF0.8999999761581421
aF0.8999999761581421
aF0.8999999761581421
aF0.8999999761581421
aF0.8999999761581421
aF0.8999999761581421
aF0.8999999761581421
aF0.8999999761581421
aF0.8999999761581421
aF0.8999999761581421
aF0.8999999761581421
aF0.8999999761581421
aF0.8999999761581421
aF0.8999999761581421
aF0.8999999761581421
aF0.8999999761581421
aF0.8999999761581421
aF0.8999999761581421
aF0.8999999761581421
aF0.8999999761581421
aF0.8999999761581421
aF0.8999999761581421
aF0.8999999761581421
aF0.8999999761581421
aF0.8999999761581421
aF0.8999999761581421
aF0.8999999761581421
aF0.8999999761581421
aF0.8999999761581421
aF0.8999999761581421
aF0.8999999761581421
aF0.8999999761581421
aF0.8999999761581421
aF0.8999999761581421
aF0.8999999761581421
aF0.8999999761581421
aF0.8999999761581421
aF0.8999999761581421
aF0.8999999761581421
aF0.8999999761581421
aF0.8999999761581421
aF0.8999999761581421
aF0.8999999761581421
aF0.8999999761581421
aF0.8999999761581421
aF0.8999999761581421
aF0.8999999761581421
aF0.8999999761581421
aF0.8999999761581421
aF0.8999999761581421
aF0.8999999761581421
aF0.8999999761581421
aF0.8999999761581421
aF0.8999999761581421
aF0.8999999761581421
aF0.8999999761581421
aF0.8999999761581421
aF0.8999999761581421
aF0.8999999761581421
aF0.8999999761581421
aF0.8999999761581421
aF0.8999999761581421
aF0.8999999761581421
aF0.8999999761581421
aF0.8999999761581421
aF0.8999999761581421
asVcheckpoint/checkpoint_test_loss
p54
(lp55
F307.2002258300781
aF49.3704948425293
aF42.85007095336914
aF18.8209228515625
aF14.59460163116455
aF16.29810905456543
aF11.240809440612793
aF8.824243545532227
aF8.558243751525879
aF7.903130531311035
aF6.441834926605225
aF6.125112056732178
aF5.827515602111816
aF5.187182426452637
aF4.949856758117676
aF4.723851203918457
aF4.437652587890625
aF4.26591157913208
aF4.115063190460205
aF3.9606242179870605
aF3.843939781188965
aF3.7434146404266357
aF3.6468770503997803
aF3.5678176879882812
aF3.4975452423095703
aF3.4324898719787598
aF3.3765828609466553
aF3.3257429599761963
aF3.2794525623321533
aF3.2382097244262695
aF3.2004096508026123
aF3.1659607887268066
aF3.134592056274414
aF3.1057381629943848
aF3.0792276859283447
aF3.0548288822174072
aF3.0322608947753906
aF3.0113935470581055
aF2.992046594619751
aF2.9740700721740723
aF2.95735502243042
aF2.941784143447876
aF2.9272568225860596
aF2.9136955738067627
aF2.901014804840088
aF2.8891494274139404
aF2.878035068511963
aF2.8676161766052246
aF2.857839822769165
aF2.848663330078125
aF2.840039014816284
aF2.831937313079834
aF2.824310302734375
aF2.8171353340148926
aF2.810380697250366
aF2.8040151596069336
aF2.798020362854004
aF2.7923667430877686
aF2.787034273147583
aF2.78200364112854
aF2.777256727218628
aF2.772775173187256
aF2.7685439586639404
aF2.764545202255249
aF2.760770559310913
aF2.757201910018921
aF2.7538273334503174
aF2.750640392303467
aF2.7476236820220947
aF2.744771957397461
aF2.7420735359191895
aF2.7395224571228027
aF2.73710560798645
aF2.734820604324341
aF2.7326576709747314
aF2.730609893798828
aF2.728671073913574
aF2.726834774017334
aF2.7250967025756836
aF2.7234504222869873
aF2.721890449523926
aF2.7204132080078125
aF2.719015121459961
aF2.71768856048584
aF2.716434955596924
aF2.715243339538574
aF2.714118242263794
aF2.7130494117736816
aF2.712038278579712
aF2.7110812664031982
aF2.710171937942505
aF2.7093122005462646
aF2.7084968090057373
aF2.707725763320923
aF2.7069931030273438
aF2.706301689147949
aF2.7056446075439453
aF2.705024242401123
aF2.704434394836426
aF2.7038791179656982
aF2.70335054397583
asVtime/convergence_iterations
p56
(lp57
F0.0
aF0.0
aF0.0
aF0.0
aF0.0
aF0.0
aF0.0
aF0.0
aF0.0
aF0.0
aF0.0
aF11.0
aF11.0
aF11.0
aF11.0
aF11.0
aF11.0
aF11.0
aF11.0
aF11.0
aF11.0
aF11.0
aF11.0
aF11.0
aF11.0
aF11.0
aF11.0
aF11.0
aF11.0
aF11.0
aF11.0
aF11.0
aF11.0
aF11.0
aF11.0
aF11.0
aF11.0
aF11.0
aF11.0
aF11.0
aF11.0
aF11.0
aF11.0
aF11.0
aF11.0
aF11.0
aF11.0
aF11.0
aF11.0
aF11.0
aF11.0
aF11.0
aF11.0
aF11.0
aF11.0
aF11.0
aF11.0
aF11.0
aF11.0
aF11.0
aF11.0
aF11.0
aF11.0
aF11.0
aF11.0
aF11.0
aF11.0
aF11.0
aF11.0
aF11.0
aF11.0
aF11.0
aF11.0
aF11.0
aF11.0
aF11.0
aF11.0
aF11.0
aF11.0
aF11.0
aF11.0
aF11.0
aF11.0
aF11.0
aF11.0
aF11.0
aF11.0
aF11.0
aF11.0
aF11.0
aF11.0
aF11.0
aF11.0
aF11.0
aF11.0
aF11.0
aF11.0
aF11.0
aF11.0
aF11.0
aF11.0
as.