(dp0
S'checkpoint/checkpoint_steps'
p1
(lp2
I0
aI1
aI2
aI3
aI4
aI5
aI6
aI7
aI8
aI9
aI10
aI11
aI12
aI13
aI14
aI15
aI16
aI17
aI18
aI19
aI20
aI21
aI22
aI23
aI24
aI25
aI26
aI27
aI28
aI29
aI30
aI31
aI32
aI33
aI34
aI35
aI36
aI37
aI38
aI39
aI40
aI41
aI42
aI43
aI44
aI45
aI46
aI47
aI48
aI49
aI50
aI51
aI52
aI53
aI54
aI55
aI56
aI57
aI58
aI59
aI60
aI61
aI62
aI63
aI64
aI65
aI66
aI67
aI68
aI69
aI70
aI71
aI72
aI73
aI74
aI75
aI76
aI77
aI78
aI79
aI80
aI81
aI82
aI83
aI84
aI85
aI86
aI87
aI88
aI89
aI90
aI91
aI92
aI93
aI94
aI95
aI96
aI97
aI98
aI99
aI100
asVcheckpoint/checkpoint_train_acc
p3
(lp4
F0.0
aF0.0
aF0.0
aF0.0
aF0.0
aF0.0
aF0.0
aF0.0
aF0.0
aF0.0
aF0.0
aF0.0
aF0.0
aF0.0
aF0.0
aF0.0
aF0.0
aF0.0
aF0.0
aF0.0
aF0.0
aF0.0
aF0.0
aF0.0
aF0.0
aF0.0
aF0.0
aF0.0
aF0.0
aF0.0
aF0.0
aF0.0
aF0.0
aF0.0
aF0.0
aF0.0
aF0.0
aF0.0
aF0.0
aF0.0
aF0.0
aF0.0
aF0.0
aF0.0
aF0.0
aF0.0
aF0.0
aF0.0
aF0.0
aF0.0
aF0.0
aF0.0
aF0.0
aF0.0
aF0.0
aF0.0
aF0.0
aF0.0
aF0.0
aF0.0
aF0.0
aF0.0
aF0.0
aF0.0
aF0.0
aF0.0
aF0.0
aF0.0
aF0.0
aF0.0
aF0.0
aF0.0
aF0.0
aF0.0
aF0.0
aF0.0
aF0.0
aF0.0
aF0.0
aF0.0
aF0.0
aF0.0
aF0.0
aF0.0
aF0.0
aF0.0
aF0.0
aF0.0
aF0.0
aF0.0
aF0.0
aF0.0
aF0.0
aF0.0
aF0.0
aF0.0
aF0.0
aF0.0
aF0.0
aF0.0
aF0.0
asVhyperparams/learning_rate
p5
(lp6
F0.10000000149011612
aF0.10000000149011612
aF0.10000000149011612
aF0.10000000149011612
aF0.10000000149011612
aF0.10000000149011612
aF0.10000000149011612
aF0.10000000149011612
aF0.10000000149011612
aF0.10000000149011612
aF0.10000000149011612
aF0.10000000149011612
aF0.10000000149011612
aF0.10000000149011612
aF0.10000000149011612
aF0.10000000149011612
aF0.10000000149011612
aF0.10000000149011612
aF0.10000000149011612
aF0.10000000149011612
aF0.10000000149011612
aF0.10000000149011612
aF0.10000000149011612
aF0.10000000149011612
aF0.10000000149011612
aF0.10000000149011612
aF0.10000000149011612
aF0.10000000149011612
aF0.10000000149011612
aF0.10000000149011612
aF0.10000000149011612
aF0.10000000149011612
aF0.10000000149011612
aF0.10000000149011612
aF0.10000000149011612
aF0.10000000149011612
aF0.10000000149011612
aF0.10000000149011612
aF0.10000000149011612
aF0.10000000149011612
aF0.10000000149011612
aF0.10000000149011612
aF0.10000000149011612
aF0.10000000149011612
aF0.10000000149011612
aF0.10000000149011612
aF0.10000000149011612
aF0.10000000149011612
aF0.10000000149011612
aF0.10000000149011612
aF0.10000000149011612
aF0.10000000149011612
aF0.10000000149011612
aF0.10000000149011612
aF0.10000000149011612
aF0.10000000149011612
aF0.10000000149011612
aF0.10000000149011612
aF0.10000000149011612
aF0.10000000149011612
aF0.10000000149011612
aF0.10000000149011612
aF0.10000000149011612
aF0.10000000149011612
aF0.10000000149011612
aF0.10000000149011612
aF0.10000000149011612
aF0.10000000149011612
aF0.10000000149011612
aF0.10000000149011612
aF0.10000000149011612
aF0.10000000149011612
aF0.10000000149011612
aF0.10000000149011612
aF0.10000000149011612
aF0.10000000149011612
aF0.10000000149011612
aF0.10000000149011612
aF0.10000000149011612
aF0.10000000149011612
aF0.10000000149011612
aF0.10000000149011612
aF0.10000000149011612
aF0.10000000149011612
aF0.10000000149011612
aF0.10000000149011612
aF0.10000000149011612
aF0.10000000149011612
aF0.10000000149011612
aF0.10000000149011612
aF0.10000000149011612
aF0.10000000149011612
aF0.10000000149011612
aF0.10000000149011612
aF0.10000000149011612
aF0.10000000149011612
aF0.10000000149011612
aF0.10000000149011612
aF0.10000000149011612
aF0.10000000149011612
aF0.10000000149011612
asVtime/percentage_convergence_performance
p7
(lp8
F40.55974197387695
aF8.046063423156738
aF5.151666641235352
aF2.859647750854492
aF1.8737932443618774
aF2.1272122859954834
aF1.3005329370498657
aF1.0352146625518799
aF1.0252033472061157
aF0.8436433672904968
aF0.6958304643630981
aF0.6680100560188293
aF0.5987685322761536
aF0.5302391052246094
aF0.5095470547676086
aF0.47010278701782227
aF0.44159963726997375
aF0.42329341173171997
aF0.4033348560333252
aF0.3876941502094269
aF0.37595441937446594
aF0.36452987790107727
aF0.3554961681365967
aF0.34801405668258667
aF0.34118491411209106
aF0.3356611430644989
aF0.3308362066745758
aF0.3266066312789917
aF0.3230482041835785
aF0.31989380717277527
aF0.31715914607048035
aF0.3147798776626587
aF0.31267184019088745
aF0.3108263909816742
aF0.30919134616851807
aF0.3077392578125
aF0.30644968152046204
aF0.305296927690506
aF0.30426496267318726
aF0.3033387362957001
aF0.30250421166419983
aF0.30175140500068665
aF0.3010697364807129
aF0.3004511892795563
aF0.2998892366886139
aF0.29937708377838135
aF0.29890939593315125
aF0.2984817922115326
aF0.29808998107910156
aF0.2977304458618164
aF0.2973999083042145
aF0.2970955967903137
aF0.2968151867389679
aF0.2965565621852875
aF0.296317458152771
aF0.29609644412994385
aF0.29589179158210754
aF0.29570212960243225
aF0.2955263555049896
aF0.2953631281852722
aF0.2952117919921875
aF0.2950708270072937
aF0.29494017362594604
aF0.2948184907436371
aF0.294705331325531
aF0.29460012912750244
aF0.2945020794868469
aF0.29441091418266296
aF0.2943260669708252
aF0.2942470908164978
aF0.29417362809181213
aF0.2941051125526428
aF0.2940416634082794
aF0.29398229718208313
aF0.29392752051353455
aF0.2938763499259949
aF0.29382896423339844
aF0.2937852144241333
aF0.2937442362308502
aF0.2937067747116089
aF0.2936718761920929
aF0.29363974928855896
aF0.2936100363731384
aF0.293582946062088
aF0.2935577929019928
aF0.29353511333465576
aF0.2935140132904053
aF0.293495237827301
aF0.29347774386405945
aF0.2934623658657074
aF0.2934483289718628
aF0.2934357225894928
aF0.2934245467185974
aF0.29341474175453186
aF0.29340633749961853
aF0.29339882731437683
aF0.2933926284313202
aF0.29338738322257996
aF0.29338333010673523
aF0.29337990283966064
aF0.29337772727012634
asVcheckpoint/checkpoint_test_acc
p9
(lp10
F0.0
aF0.0
aF0.0
aF0.0
aF0.0
aF0.0
aF0.0
aF0.0
aF0.0
aF0.0
aF0.0
aF0.0
aF0.0
aF0.0
aF0.0
aF0.0
aF0.0
aF0.0
aF0.0
aF0.0
aF0.0
aF0.0
aF0.0
aF0.0
aF0.0
aF0.0
aF0.0
aF0.0
aF0.0
aF0.0
aF0.0
aF0.0
aF0.0
aF0.0
aF0.0
aF0.0
aF0.0
aF0.0
aF0.0
aF0.0
aF0.0
aF0.0
aF0.0
aF0.0
aF0.0
aF0.0
aF0.0
aF0.0
aF0.0
aF0.0
aF0.0
aF0.0
aF0.0
aF0.0
aF0.0
aF0.0
aF0.0
aF0.0
aF0.0
aF0.0
aF0.0
aF0.0
aF0.0
aF0.0
aF0.0
aF0.0
aF0.0
aF0.0
aF0.0
aF0.0
aF0.0
aF0.0
aF0.0
aF0.0
aF0.0
aF0.0
aF0.0
aF0.0
aF0.0
aF0.0
aF0.0
aF0.0
aF0.0
aF0.0
aF0.0
aF0.0
aF0.0
aF0.0
aF0.0
aF0.0
aF0.0
aF0.0
aF0.0
aF0.0
aF0.0
aF0.0
aF0.0
aF0.0
aF0.0
aF0.0
aF0.0
asS'training/training_steps'
p11
(lp12
I1
aI11
aI21
aI31
aI41
aI51
aI61
aI71
aI81
aI91
aI101
aI111
aI121
aI131
aI141
aI151
aI161
aI171
aI181
aI191
aI201
aI211
aI221
aI231
aI241
aI251
aI261
aI271
aI281
aI291
aI301
aI311
aI321
aI331
aI341
aI351
aI361
aI371
aI381
aI391
aI401
aI411
aI421
aI431
aI441
aI451
aI461
aI471
aI481
aI491
aI501
aI511
aI521
aI531
aI541
aI551
aI561
aI571
aI581
aI591
aI601
aI611
aI621
aI631
aI641
aI651
aI661
aI671
aI681
aI691
aI701
aI711
aI721
aI731
aI741
aI751
aI761
aI771
aI781
aI791
asVhyperparams/batch_size
p13
(lp14
F128.0
aF128.0
aF128.0
aF128.0
aF128.0
aF128.0
aF128.0
aF128.0
aF128.0
aF128.0
aF128.0
aF128.0
aF128.0
aF128.0
aF128.0
aF128.0
aF128.0
aF128.0
aF128.0
aF128.0
aF128.0
aF128.0
aF128.0
aF128.0
aF128.0
aF128.0
aF128.0
aF128.0
aF128.0
aF128.0
aF128.0
aF128.0
aF128.0
aF128.0
aF128.0
aF128.0
aF128.0
aF128.0
aF128.0
aF128.0
aF128.0
aF128.0
aF128.0
aF128.0
aF128.0
aF128.0
aF128.0
aF128.0
aF128.0
aF128.0
aF128.0
aF128.0
aF128.0
aF128.0
aF128.0
aF128.0
aF128.0
aF128.0
aF128.0
aF128.0
aF128.0
aF128.0
aF128.0
aF128.0
aF128.0
aF128.0
aF128.0
aF128.0
aF128.0
aF128.0
aF128.0
aF128.0
aF128.0
aF128.0
aF128.0
aF128.0
aF128.0
aF128.0
aF128.0
aF128.0
aF128.0
aF128.0
aF128.0
aF128.0
aF128.0
aF128.0
aF128.0
aF128.0
aF128.0
aF128.0
aF128.0
aF128.0
aF128.0
aF128.0
aF128.0
aF128.0
aF128.0
aF128.0
aF128.0
aF128.0
aF128.0
asS'args'
p15
ccopy_reg
_reconstructor
p16
(cargparse
Namespace
p17
c__builtin__
object
p18
Ntp19
Rp20
(dp21
S'wd'
p22
NsS'data_dir'
p23
S'data'
p24
sS'epsilon'
p25
F1e-08
sS'nologs'
p26
I00
sS'num_epochs'
p27
I100
sS'lr_sched_epochs'
p28
NsS'saveto'
p29
S'res/benchmark_small_final/'
p30
sS'lr_sched_factors'
p31
NsS'train_log_interval'
p32
I10
sS'checkpoint_epochs'
p33
I1
sS'print_train_iter'
p34
I00
sS'lr'
p35
F0.1
sS'beta2'
p36
F0.999
sS'beta1'
p37
F0.9
sS'bs'
p38
I128
sS'pickle'
p39
I01
sS'random_seed'
p40
I44
sS'no_time'
p41
I00
sS'test_problem'
p42
S'quadratic.noisy_quadratic'
p43
sS'run_name'
p44
S'Adam/'
p45
sbsVhyperparams/beta2
p46
(lp47
F0.9990000128746033
aF0.9990000128746033
aF0.9990000128746033
aF0.9990000128746033
aF0.9990000128746033
aF0.9990000128746033
aF0.9990000128746033
aF0.9990000128746033
aF0.9990000128746033
aF0.9990000128746033
aF0.9990000128746033
aF0.9990000128746033
aF0.9990000128746033
aF0.9990000128746033
aF0.9990000128746033
aF0.9990000128746033
aF0.9990000128746033
aF0.9990000128746033
aF0.9990000128746033
aF0.9990000128746033
aF0.9990000128746033
aF0.9990000128746033
aF0.9990000128746033
aF0.9990000128746033
aF0.9990000128746033
aF0.9990000128746033
aF0.9990000128746033
aF0.9990000128746033
aF0.9990000128746033
aF0.9990000128746033
aF0.9990000128746033
aF0.9990000128746033
aF0.9990000128746033
aF0.9990000128746033
aF0.9990000128746033
aF0.9990000128746033
aF0.9990000128746033
aF0.9990000128746033
aF0.9990000128746033
aF0.9990000128746033
aF0.9990000128746033
aF0.9990000128746033
aF0.9990000128746033
aF0.9990000128746033
aF0.9990000128746033
aF0.9990000128746033
aF0.9990000128746033
aF0.9990000128746033
aF0.9990000128746033
aF0.9990000128746033
aF0.9990000128746033
aF0.9990000128746033
aF0.9990000128746033
aF0.9990000128746033
aF0.9990000128746033
aF0.9990000128746033
aF0.9990000128746033
aF0.9990000128746033
aF0.9990000128746033
aF0.9990000128746033
aF0.9990000128746033
aF0.9990000128746033
aF0.9990000128746033
aF0.9990000128746033
aF0.9990000128746033
aF0.9990000128746033
aF0.9990000128746033
aF0.9990000128746033
aF0.9990000128746033
aF0.9990000128746033
aF0.9990000128746033
aF0.9990000128746033
aF0.9990000128746033
aF0.9990000128746033
aF0.9990000128746033
aF0.9990000128746033
aF0.9990000128746033
aF0.9990000128746033
aF0.9990000128746033
aF0.9990000128746033
aF0.9990000128746033
aF0.9990000128746033
aF0.9990000128746033
aF0.9990000128746033
aF0.9990000128746033
aF0.9990000128746033
aF0.9990000128746033
aF0.9990000128746033
aF0.9990000128746033
aF0.9990000128746033
aF0.9990000128746033
aF0.9990000128746033
aF0.9990000128746033
aF0.9990000128746033
aF0.9990000128746033
aF0.9990000128746033
aF0.9990000128746033
aF0.9990000128746033
aF0.9990000128746033
aF0.9990000128746033
aF0.9990000128746033
asVtraining/training_loss
p48
(lp49
F242.9381561279297
aF59.816036224365234
aF22.439411163330078
aF27.182334899902344
aF23.01628303527832
aF18.132064819335938
aF12.36030387878418
aF20.39450454711914
aF12.215361595153809
aF13.486246109008789
aF10.00027084350586
aF18.193614959716797
aF11.082300186157227
aF12.774269104003906
aF9.353551864624023
aF17.63467025756836
aF10.534811973571777
aF12.485623359680176
aF9.203643798828125
aF17.455089569091797
aF10.318302154541016
aF12.404048919677734
aF9.171847343444824
aF17.386959075927734
aF10.23401927947998
aF12.39198112487793
aF9.170690536499023
aF17.36127471923828
aF10.1998291015625
aF12.401459693908691
aF9.175603866577148
aF17.352134704589844
aF10.185811996459961
aF12.416709899902344
aF9.1800537109375
aF17.349891662597656
aF10.180234909057617
aF12.432448387145996
aF9.18297004699707
aF17.35074234008789
aF10.178277969360352
aF12.447063446044922
aF9.18468952178955
aF17.353076934814453
aF10.177909851074219
aF12.460184097290039
aF9.185707092285156
aF17.35613441467285
aF10.178261756896973
aF12.471871376037598
aF9.18638801574707
aF17.359506607055664
aF10.178936004638672
aF12.482290267944336
aF9.186959266662598
aF17.362972259521484
aF10.179762840270996
aF12.491620063781738
aF9.187554359436035
aF17.36639404296875
aF10.180665016174316
aF12.500020027160645
aF9.188223838806152
aF17.36970329284668
aF10.181598663330078
aF12.507623672485352
aF9.188987731933594
aF17.37285804748535
aF10.182548522949219
aF12.514533996582031
aF9.189844131469727
aF17.375822067260742
aF10.183500289916992
aF12.520854949951172
aF9.19078540802002
aF17.378610610961914
aF10.184442520141602
aF12.526642799377441
aF9.191787719726562
aF17.381214141845703
asVcheckpoint/checkpoint_train_loss
p50
(lp51
F296.8167419433594
aF57.879600524902344
aF42.094852447509766
aF34.487457275390625
aF26.354808807373047
aF24.74134635925293
aF21.42514991760254
aF20.46952247619629
aF19.131805419921875
aF18.310440063476562
aF17.74637222290039
aF17.203781127929688
aF16.829174041748047
aF16.5274658203125
aF16.2728271484375
aF16.070301055908203
aF15.909212112426758
aF15.769709587097168
aF15.658064842224121
aF15.564980506896973
aF15.485268592834473
aF15.420097351074219
aF15.364058494567871
aF15.316710472106934
aF15.276476860046387
aF15.24190902709961
aF15.212153434753418
aF15.186542510986328
aF15.164198875427246
aF15.144782066345215
aF15.127750396728516
aF15.112761497497559
aF15.099523544311523
aF15.087770462036133
aF15.07729434967041
aF15.06792163848877
aF15.059496879577637
aF15.05190372467041
aF15.045028686523438
aF15.038783073425293
aF15.033092498779297
aF15.027891159057617
aF15.023120880126953
aF15.018736839294434
aF15.014692306518555
aF15.010957717895508
aF15.007497787475586
aF15.004284858703613
aF15.001296043395996
aF14.998510360717773
aF14.99591064453125
aF14.993477821350098
aF14.991196632385254
aF14.989057540893555
aF14.987048149108887
aF14.98515796661377
aF14.983376502990723
aF14.981696128845215
aF14.980109214782715
aF14.978609085083008
aF14.977190971374512
aF14.975846290588379
aF14.974571228027344
aF14.973362922668457
aF14.97221565246582
aF14.971124649047852
aF14.970087051391602
aF14.969100952148438
aF14.968161582946777
aF14.967265129089355
aF14.966411590576172
aF14.965596199035645
aF14.964820861816406
aF14.96407699584961
aF14.963369369506836
aF14.962692260742188
aF14.962042808532715
aF14.961424827575684
aF14.960830688476562
aF14.960265159606934
aF14.959722518920898
aF14.95920181274414
aF14.95870304107666
aF14.95822525024414
aF14.957767486572266
aF14.957327842712402
aF14.95690631866455
aF14.956503868103027
aF14.95611572265625
aF14.955743789672852
aF14.955387115478516
aF14.955042839050293
aF14.954713821411133
aF14.954398155212402
aF14.954094886779785
aF14.953802108764648
aF14.953522682189941
aF14.953254699707031
aF14.952995300292969
aF14.952747344970703
aF14.952507972717285
asVhyperparams/beta1
p52
(lp53
F0.8999999761581421
aF0.8999999761581421
aF0.8999999761581421
aF0.8999999761581421
aF0.8999999761581421
aF0.8999999761581421
aF0.8999999761581421
aF0.8999999761581421
aF0.8999999761581421
aF0.8999999761581421
aF0.8999999761581421
aF0.8999999761581421
aF0.8999999761581421
aF0.8999999761581421
aF0.8999999761581421
aF0.8999999761581421
aF0.8999999761581421
aF0.8999999761581421
aF0.8999999761581421
aF0.8999999761581421
aF0.8999999761581421
aF0.8999999761581421
aF0.8999999761581421
aF0.8999999761581421
aF0.8999999761581421
aF0.8999999761581421
aF0.8999999761581421
aF0.8999999761581421
aF0.8999999761581421
aF0.8999999761581421
aF0.8999999761581421
aF0.8999999761581421
aF0.8999999761581421
aF0.8999999761581421
aF0.8999999761581421
aF0.8999999761581421
aF0.8999999761581421
aF0.8999999761581421
aF0.8999999761581421
aF0.8999999761581421
aF0.8999999761581421
aF0.8999999761581421
aF0.8999999761581421
aF0.8999999761581421
aF0.8999999761581421
aF0.8999999761581421
aF0.8999999761581421
aF0.8999999761581421
aF0.8999999761581421
aF0.8999999761581421
aF0.8999999761581421
aF0.8999999761581421
aF0.8999999761581421
aF0.8999999761581421
aF0.8999999761581421
aF0.8999999761581421
aF0.8999999761581421
aF0.8999999761581421
aF0.8999999761581421
aF0.8999999761581421
aF0.8999999761581421
aF0.8999999761581421
aF0.8999999761581421
aF0.8999999761581421
aF0.8999999761581421
aF0.8999999761581421
aF0.8999999761581421
aF0.8999999761581421
aF0.8999999761581421
aF0.8999999761581421
aF0.8999999761581421
aF0.8999999761581421
aF0.8999999761581421
aF0.8999999761581421
aF0.8999999761581421
aF0.8999999761581421
aF0.8999999761581421
aF0.8999999761581421
aF0.8999999761581421
aF0.8999999761581421
aF0.8999999761581421
aF0.8999999761581421
aF0.8999999761581421
aF0.8999999761581421
aF0.8999999761581421
aF0.8999999761581421
aF0.8999999761581421
aF0.8999999761581421
aF0.8999999761581421
aF0.8999999761581421
aF0.8999999761581421
aF0.8999999761581421
aF0.8999999761581421
aF0.8999999761581421
aF0.8999999761581421
aF0.8999999761581421
aF0.8999999761581421
aF0.8999999761581421
aF0.8999999761581421
aF0.8999999761581421
aF0.8999999761581421
asVcheckpoint/checkpoint_test_loss
p54
(lp55
F259.9879455566406
aF51.57526779174805
aF33.02218246459961
aF18.330341339111328
aF12.011014938354492
aF13.635430335998535
aF8.336416244506836
aF6.635725975036621
aF6.571553707122803
aF5.407753944396973
aF4.460273265838623
aF4.281944274902344
aF3.838106393814087
aF3.3988325595855713
aF3.2661964893341064
aF3.0133588314056396
aF2.830653667449951
aF2.713310718536377
aF2.585376501083374
aF2.485119581222534
aF2.409867763519287
aF2.336636543273926
aF2.2787303924560547
aF2.2307701110839844
aF2.186995267868042
aF2.151587963104248
aF2.1206600666046143
aF2.093548536300659
aF2.0707390308380127
aF2.0505192279815674
aF2.0329902172088623
aF2.0177390575408936
aF2.0042264461517334
aF1.9923971891403198
aF1.9819165468215942
aF1.9726086854934692
aF1.964342474937439
aF1.9569532871246338
aF1.9503384828567505
aF1.9444013833999634
aF1.9390519857406616
aF1.9342265129089355
aF1.9298570156097412
aF1.9258921146392822
aF1.9222899675369263
aF1.9190070629119873
aF1.9160093069076538
aF1.9132683277130127
aF1.9107568264007568
aF1.9084521532058716
aF1.906333327293396
aF1.9043828248977661
aF1.9025853872299194
aF1.9009275436401367
aF1.8993949890136719
aF1.8979781866073608
aF1.896666407585144
aF1.8954507112503052
aF1.8943239450454712
aF1.893277645111084
aF1.8923076391220093
aF1.8914040327072144
aF1.8905664682388306
aF1.8897864818572998
aF1.8890612125396729
aF1.888386845588684
aF1.8877583742141724
aF1.8871740102767944
aF1.8866300582885742
aF1.886123776435852
aF1.885653018951416
aF1.885213851928711
aF1.8848071098327637
aF1.8844265937805176
aF1.884075403213501
aF1.8837473392486572
aF1.8834435939788818
aF1.8831632137298584
aF1.882900595664978
aF1.8826603889465332
aF1.882436752319336
aF1.8822307586669922
aF1.8820403814315796
aF1.881866693496704
aF1.881705403327942
aF1.8815600872039795
aF1.881424903869629
aF1.881304383277893
aF1.8811923265457153
aF1.8810938596725464
aF1.8810038566589355
aF1.8809229135513306
aF1.8808513879776
aF1.8807885646820068
aF1.8807345628738403
aF1.8806865215301514
aF1.8806467056274414
aF1.880613088607788
aF1.880587100982666
aF1.8805651664733887
aF1.8805512189865112
asVtime/convergence_iterations
p56
(lp57
F0.0
aF0.0
aF0.0
aF0.0
aF0.0
aF0.0
aF0.0
aF0.0
aF0.0
aF9.0
aF9.0
aF9.0
aF9.0
aF9.0
aF9.0
aF9.0
aF9.0
aF9.0
aF9.0
aF9.0
aF9.0
aF9.0
aF9.0
aF9.0
aF9.0
aF9.0
aF9.0
aF9.0
aF9.0
aF9.0
aF9.0
aF9.0
aF9.0
aF9.0
aF9.0
aF9.0
aF9.0
aF9.0
aF9.0
aF9.0
aF9.0
aF9.0
aF9.0
aF9.0
aF9.0
aF9.0
aF9.0
aF9.0
aF9.0
aF9.0
aF9.0
aF9.0
aF9.0
aF9.0
aF9.0
aF9.0
aF9.0
aF9.0
aF9.0
aF9.0
aF9.0
aF9.0
aF9.0
aF9.0
aF9.0
aF9.0
aF9.0
aF9.0
aF9.0
aF9.0
aF9.0
aF9.0
aF9.0
aF9.0
aF9.0
aF9.0
aF9.0
aF9.0
aF9.0
aF9.0
aF9.0
aF9.0
aF9.0
aF9.0
aF9.0
aF9.0
aF9.0
aF9.0
aF9.0
aF9.0
aF9.0
aF9.0
aF9.0
aF9.0
aF9.0
aF9.0
aF9.0
aF9.0
aF9.0
aF9.0
aF9.0
as.