(dp0
S'checkpoint/checkpoint_steps'
p1
(lp2
I0
aI1
aI2
aI3
aI4
aI5
aI6
aI7
aI8
aI9
aI10
aI11
aI12
aI13
aI14
aI15
aI16
aI17
aI18
aI19
aI20
aI21
aI22
aI23
aI24
aI25
aI26
aI27
aI28
aI29
aI30
aI31
aI32
aI33
aI34
aI35
aI36
aI37
aI38
aI39
aI40
aI41
aI42
aI43
aI44
aI45
aI46
aI47
aI48
aI49
aI50
aI51
aI52
aI53
aI54
aI55
aI56
aI57
aI58
aI59
aI60
aI61
aI62
aI63
aI64
aI65
aI66
aI67
aI68
aI69
aI70
aI71
aI72
aI73
aI74
aI75
aI76
aI77
aI78
aI79
aI80
aI81
aI82
aI83
aI84
aI85
aI86
aI87
aI88
aI89
aI90
aI91
aI92
aI93
aI94
aI95
aI96
aI97
aI98
aI99
aI100
asVcheckpoint/checkpoint_train_acc
p3
(lp4
F0.0
aF0.0
aF0.0
aF0.0
aF0.0
aF0.0
aF0.0
aF0.0
aF0.0
aF0.0
aF0.0
aF0.0
aF0.0
aF0.0
aF0.0
aF0.0
aF0.0
aF0.0
aF0.0
aF0.0
aF0.0
aF0.0
aF0.0
aF0.0
aF0.0
aF0.0
aF0.0
aF0.0
aF0.0
aF0.0
aF0.0
aF0.0
aF0.0
aF0.0
aF0.0
aF0.0
aF0.0
aF0.0
aF0.0
aF0.0
aF0.0
aF0.0
aF0.0
aF0.0
aF0.0
aF0.0
aF0.0
aF0.0
aF0.0
aF0.0
aF0.0
aF0.0
aF0.0
aF0.0
aF0.0
aF0.0
aF0.0
aF0.0
aF0.0
aF0.0
aF0.0
aF0.0
aF0.0
aF0.0
aF0.0
aF0.0
aF0.0
aF0.0
aF0.0
aF0.0
aF0.0
aF0.0
aF0.0
aF0.0
aF0.0
aF0.0
aF0.0
aF0.0
aF0.0
aF0.0
aF0.0
aF0.0
aF0.0
aF0.0
aF0.0
aF0.0
aF0.0
aF0.0
aF0.0
aF0.0
aF0.0
aF0.0
aF0.0
aF0.0
aF0.0
aF0.0
aF0.0
aF0.0
aF0.0
aF0.0
aF0.0
asVhyperparams/learning_rate
p5
(lp6
F0.10000000149011612
aF0.10000000149011612
aF0.10000000149011612
aF0.10000000149011612
aF0.10000000149011612
aF0.10000000149011612
aF0.10000000149011612
aF0.10000000149011612
aF0.10000000149011612
aF0.10000000149011612
aF0.10000000149011612
aF0.10000000149011612
aF0.10000000149011612
aF0.10000000149011612
aF0.10000000149011612
aF0.10000000149011612
aF0.10000000149011612
aF0.10000000149011612
aF0.10000000149011612
aF0.10000000149011612
aF0.10000000149011612
aF0.10000000149011612
aF0.10000000149011612
aF0.10000000149011612
aF0.10000000149011612
aF0.10000000149011612
aF0.10000000149011612
aF0.10000000149011612
aF0.10000000149011612
aF0.10000000149011612
aF0.10000000149011612
aF0.10000000149011612
aF0.10000000149011612
aF0.10000000149011612
aF0.10000000149011612
aF0.10000000149011612
aF0.10000000149011612
aF0.10000000149011612
aF0.10000000149011612
aF0.10000000149011612
aF0.10000000149011612
aF0.10000000149011612
aF0.10000000149011612
aF0.10000000149011612
aF0.10000000149011612
aF0.10000000149011612
aF0.10000000149011612
aF0.10000000149011612
aF0.10000000149011612
aF0.10000000149011612
aF0.10000000149011612
aF0.10000000149011612
aF0.10000000149011612
aF0.10000000149011612
aF0.10000000149011612
aF0.10000000149011612
aF0.10000000149011612
aF0.10000000149011612
aF0.10000000149011612
aF0.10000000149011612
aF0.10000000149011612
aF0.10000000149011612
aF0.10000000149011612
aF0.10000000149011612
aF0.10000000149011612
aF0.10000000149011612
aF0.10000000149011612
aF0.10000000149011612
aF0.10000000149011612
aF0.10000000149011612
aF0.10000000149011612
aF0.10000000149011612
aF0.10000000149011612
aF0.10000000149011612
aF0.10000000149011612
aF0.10000000149011612
aF0.10000000149011612
aF0.10000000149011612
aF0.10000000149011612
aF0.10000000149011612
aF0.10000000149011612
aF0.10000000149011612
aF0.10000000149011612
aF0.10000000149011612
aF0.10000000149011612
aF0.10000000149011612
aF0.10000000149011612
aF0.10000000149011612
aF0.10000000149011612
aF0.10000000149011612
aF0.10000000149011612
aF0.10000000149011612
aF0.10000000149011612
aF0.10000000149011612
aF0.10000000149011612
aF0.10000000149011612
aF0.10000000149011612
aF0.10000000149011612
aF0.10000000149011612
aF0.10000000149011612
aF0.10000000149011612
asVtime/percentage_convergence_performance
p7
(lp8
F51.23292541503906
aF9.523459434509277
aF5.804112911224365
aF3.059414863586426
aF2.343308448791504
aF2.3383638858795166
aF1.5581130981445312
aF1.3670845031738281
aF1.259372353553772
aF1.1351319551467896
aF0.9657149314880371
aF0.9136871099472046
aF0.8483449220657349
aF0.7623725533485413
aF0.7263681888580322
aF0.679739773273468
aF0.6364657282829285
aF0.6080699563026428
aF0.5773561596870422
aF0.5519658923149109
aF0.5306152105331421
aF0.5107057094573975
aF0.4936031401157379
aF0.47842392325401306
aF0.4648447036743164
aF0.45275506377220154
aF0.4420020878314972
aF0.4323219954967499
aF0.4236392378807068
aF0.41585078835487366
aF0.4087965786457062
aF0.40244367718696594
aF0.39668774604797363
aF0.3914627432823181
aF0.386723130941391
aF0.3824034333229065
aF0.37846818566322327
aF0.37487393617630005
aF0.37158605456352234
aF0.3685745596885681
aF0.36581143736839294
aF0.3632727265357971
aF0.36093658208847046
aF0.3587838411331177
aF0.35679787397384644
aF0.3549627959728241
aF0.3532649278640747
aF0.35169246792793274
aF0.3502340614795685
aF0.34887951612472534
aF0.34762057662010193
aF0.34644827246665955
aF0.34535616636276245
aF0.34433749318122864
aF0.3433859050273895
aF0.34249642491340637
aF0.34166407585144043
aF0.34088438749313354
aF0.34015315771102905
aF0.3394668400287628
aF0.33882224559783936
aF0.3382158577442169
aF0.33764538168907166
aF0.33710798621177673
aF0.33660128712654114
aF0.33612313866615295
aF0.33567193150520325
aF0.3352453112602234
aF0.3348418176174164
aF0.3344600796699524
aF0.33409836888313293
aF0.33375585079193115
aF0.33343079686164856
aF0.33312252163887024
aF0.3328293561935425
aF0.3325512409210205
aF0.3322868049144745
aF0.33203503489494324
aF0.3317956030368805
aF0.3315674066543579
aF0.3313501179218292
aF0.3311428427696228
aF0.33094522356987
aF0.3307569921016693
aF0.33057665824890137
aF0.3304048478603363
aF0.3302406072616577
aF0.330083429813385
aF0.32993340492248535
aF0.32978981733322144
aF0.32965219020843506
aF0.32952046394348145
aF0.32939448952674866
aF0.32927364110946655
aF0.3291577994823456
aF0.32904693484306335
aF0.3289403021335602
aF0.328838050365448
aF0.3287401795387268
aF0.3286459743976593
aF0.3285556733608246
asVcheckpoint/checkpoint_test_acc
p9
(lp10
F0.0
aF0.0
aF0.0
aF0.0
aF0.0
aF0.0
aF0.0
aF0.0
aF0.0
aF0.0
aF0.0
aF0.0
aF0.0
aF0.0
aF0.0
aF0.0
aF0.0
aF0.0
aF0.0
aF0.0
aF0.0
aF0.0
aF0.0
aF0.0
aF0.0
aF0.0
aF0.0
aF0.0
aF0.0
aF0.0
aF0.0
aF0.0
aF0.0
aF0.0
aF0.0
aF0.0
aF0.0
aF0.0
aF0.0
aF0.0
aF0.0
aF0.0
aF0.0
aF0.0
aF0.0
aF0.0
aF0.0
aF0.0
aF0.0
aF0.0
aF0.0
aF0.0
aF0.0
aF0.0
aF0.0
aF0.0
aF0.0
aF0.0
aF0.0
aF0.0
aF0.0
aF0.0
aF0.0
aF0.0
aF0.0
aF0.0
aF0.0
aF0.0
aF0.0
aF0.0
aF0.0
aF0.0
aF0.0
aF0.0
aF0.0
aF0.0
aF0.0
aF0.0
aF0.0
aF0.0
aF0.0
aF0.0
aF0.0
aF0.0
aF0.0
aF0.0
aF0.0
aF0.0
aF0.0
aF0.0
aF0.0
aF0.0
aF0.0
aF0.0
aF0.0
aF0.0
aF0.0
aF0.0
aF0.0
aF0.0
aF0.0
asS'training/training_steps'
p11
(lp12
I1
aI11
aI21
aI31
aI41
aI51
aI61
aI71
aI81
aI91
aI101
aI111
aI121
aI131
aI141
aI151
aI161
aI171
aI181
aI191
aI201
aI211
aI221
aI231
aI241
aI251
aI261
aI271
aI281
aI291
aI301
aI311
aI321
aI331
aI341
aI351
aI361
aI371
aI381
aI391
aI401
aI411
aI421
aI431
aI441
aI451
aI461
aI471
aI481
aI491
aI501
aI511
aI521
aI531
aI541
aI551
aI561
aI571
aI581
aI591
aI601
aI611
aI621
aI631
aI641
aI651
aI661
aI671
aI681
aI691
aI701
aI711
aI721
aI731
aI741
aI751
aI761
aI771
aI781
aI791
asVhyperparams/batch_size
p13
(lp14
F128.0
aF128.0
aF128.0
aF128.0
aF128.0
aF128.0
aF128.0
aF128.0
aF128.0
aF128.0
aF128.0
aF128.0
aF128.0
aF128.0
aF128.0
aF128.0
aF128.0
aF128.0
aF128.0
aF128.0
aF128.0
aF128.0
aF128.0
aF128.0
aF128.0
aF128.0
aF128.0
aF128.0
aF128.0
aF128.0
aF128.0
aF128.0
aF128.0
aF128.0
aF128.0
aF128.0
aF128.0
aF128.0
aF128.0
aF128.0
aF128.0
aF128.0
aF128.0
aF128.0
aF128.0
aF128.0
aF128.0
aF128.0
aF128.0
aF128.0
aF128.0
aF128.0
aF128.0
aF128.0
aF128.0
aF128.0
aF128.0
aF128.0
aF128.0
aF128.0
aF128.0
aF128.0
aF128.0
aF128.0
aF128.0
aF128.0
aF128.0
aF128.0
aF128.0
aF128.0
aF128.0
aF128.0
aF128.0
aF128.0
aF128.0
aF128.0
aF128.0
aF128.0
aF128.0
aF128.0
aF128.0
aF128.0
aF128.0
aF128.0
aF128.0
aF128.0
aF128.0
aF128.0
aF128.0
aF128.0
aF128.0
aF128.0
aF128.0
aF128.0
aF128.0
aF128.0
aF128.0
aF128.0
aF128.0
aF128.0
aF128.0
asS'args'
p15
ccopy_reg
_reconstructor
p16
(cargparse
Namespace
p17
c__builtin__
object
p18
Ntp19
Rp20
(dp21
S'wd'
p22
NsS'data_dir'
p23
S'data'
p24
sS'epsilon'
p25
F1e-08
sS'nologs'
p26
I00
sS'num_epochs'
p27
I100
sS'lr_sched_epochs'
p28
NsS'saveto'
p29
S'res/benchmark_small_final/'
p30
sS'lr_sched_factors'
p31
NsS'train_log_interval'
p32
I10
sS'checkpoint_epochs'
p33
I1
sS'print_train_iter'
p34
I00
sS'lr'
p35
F0.1
sS'beta2'
p36
F0.999
sS'beta1'
p37
F0.9
sS'bs'
p38
I128
sS'pickle'
p39
I01
sS'random_seed'
p40
I50
sS'no_time'
p41
I00
sS'test_problem'
p42
S'quadratic.noisy_quadratic'
p43
sS'run_name'
p44
S'Adam/'
p45
sbsVhyperparams/beta2
p46
(lp47
F0.9990000128746033
aF0.9990000128746033
aF0.9990000128746033
aF0.9990000128746033
aF0.9990000128746033
aF0.9990000128746033
aF0.9990000128746033
aF0.9990000128746033
aF0.9990000128746033
aF0.9990000128746033
aF0.9990000128746033
aF0.9990000128746033
aF0.9990000128746033
aF0.9990000128746033
aF0.9990000128746033
aF0.9990000128746033
aF0.9990000128746033
aF0.9990000128746033
aF0.9990000128746033
aF0.9990000128746033
aF0.9990000128746033
aF0.9990000128746033
aF0.9990000128746033
aF0.9990000128746033
aF0.9990000128746033
aF0.9990000128746033
aF0.9990000128746033
aF0.9990000128746033
aF0.9990000128746033
aF0.9990000128746033
aF0.9990000128746033
aF0.9990000128746033
aF0.9990000128746033
aF0.9990000128746033
aF0.9990000128746033
aF0.9990000128746033
aF0.9990000128746033
aF0.9990000128746033
aF0.9990000128746033
aF0.9990000128746033
aF0.9990000128746033
aF0.9990000128746033
aF0.9990000128746033
aF0.9990000128746033
aF0.9990000128746033
aF0.9990000128746033
aF0.9990000128746033
aF0.9990000128746033
aF0.9990000128746033
aF0.9990000128746033
aF0.9990000128746033
aF0.9990000128746033
aF0.9990000128746033
aF0.9990000128746033
aF0.9990000128746033
aF0.9990000128746033
aF0.9990000128746033
aF0.9990000128746033
aF0.9990000128746033
aF0.9990000128746033
aF0.9990000128746033
aF0.9990000128746033
aF0.9990000128746033
aF0.9990000128746033
aF0.9990000128746033
aF0.9990000128746033
aF0.9990000128746033
aF0.9990000128746033
aF0.9990000128746033
aF0.9990000128746033
aF0.9990000128746033
aF0.9990000128746033
aF0.9990000128746033
aF0.9990000128746033
aF0.9990000128746033
aF0.9990000128746033
aF0.9990000128746033
aF0.9990000128746033
aF0.9990000128746033
aF0.9990000128746033
aF0.9990000128746033
aF0.9990000128746033
aF0.9990000128746033
aF0.9990000128746033
aF0.9990000128746033
aF0.9990000128746033
aF0.9990000128746033
aF0.9990000128746033
aF0.9990000128746033
aF0.9990000128746033
aF0.9990000128746033
aF0.9990000128746033
aF0.9990000128746033
aF0.9990000128746033
aF0.9990000128746033
aF0.9990000128746033
aF0.9990000128746033
aF0.9990000128746033
aF0.9990000128746033
aF0.9990000128746033
aF0.9990000128746033
asVtraining/training_loss
p48
(lp49
F432.5494384765625
aF94.6131591796875
aF28.672975540161133
aF33.640438079833984
aF19.397743225097656
aF18.424171447753906
aF20.96021842956543
aF19.124971389770508
aF20.819332122802734
aF14.087189674377441
aF17.67926025390625
aF16.78911018371582
aF17.506633758544922
aF12.470712661743164
aF16.377395629882812
aF15.766335487365723
aF16.45270538330078
aF11.725354194641113
aF15.745708465576172
aF15.285076141357422
aF15.866103172302246
aF11.322660446166992
aF15.418224334716797
aF15.055020332336426
aF15.512702941894531
aF11.085878372192383
aF15.231215476989746
aF14.939453125
aF15.29393196105957
aF10.938627243041992
aF15.117486953735352
aF14.878856658935547
aF15.153270721435547
aF10.843202590942383
aF15.045312881469727
aF14.845844268798828
aF15.059921264648438
aF10.779242515563965
aF14.998092651367188
aF14.82718563079834
aF14.996243476867676
aF10.735116958618164
aF14.966529846191406
aF14.816190719604492
aF14.951716423034668
aF10.703926086425781
aF14.945116996765137
aF14.809402465820312
aF14.919877052307129
aF10.68140983581543
aF14.930459976196289
aF14.804990768432617
aF14.896625518798828
aF10.664848327636719
aF14.920388221740723
aF14.801944732666016
aF14.879316329956055
aF10.652481079101562
aF14.913492202758789
aF14.79973030090332
aF14.866217613220215
aF10.643119812011719
aF14.908820152282715
aF14.798036575317383
aF14.856155395507812
aF10.635963439941406
aF14.905717849731445
aF14.796700477600098
aF14.84832763671875
aF10.630436897277832
aF14.903743743896484
aF14.795608520507812
aF14.842177391052246
aF10.626141548156738
aF14.902578353881836
aF14.794710159301758
aF14.837279319763184
aF10.622785568237305
aF14.901991844177246
aF14.793971061706543
asVcheckpoint/checkpoint_train_loss
p50
(lp51
F371.0245056152344
aF64.5815658569336
aF46.799530029296875
aF36.23339080810547
aF28.259912490844727
aF26.479598999023438
aF22.769250869750977
aF22.064781188964844
aF20.598909378051758
aF19.766536712646484
aF19.095962524414062
aF18.484355926513672
aF18.02155113220215
aF17.616729736328125
aF17.276336669921875
aF16.986175537109375
aF16.7373046875
aF16.522308349609375
aF16.335338592529297
aF16.173141479492188
aF16.030670166015625
aF15.90556526184082
aF15.795507431030273
aF15.697843551635742
aF15.61131477355957
aF15.534307479858398
aF15.465466499328613
aF15.403942108154297
aF15.348691940307617
aF15.298991203308105
aF15.254202842712402
aF15.213712692260742
aF15.177058219909668
aF15.143797874450684
aF15.113554954528809
aF15.08601188659668
aF15.060873031616211
aF15.03789234161377
aF15.016847610473633
aF14.997540473937988
aF14.979803085327148
aF14.963478088378906
aF14.948431968688965
aF14.93454360961914
aF14.921704292297363
aF14.909821510314941
aF14.8988037109375
aF14.888577461242676
aF14.879069328308105
aF14.870220184326172
aF14.861974716186523
aF14.854280471801758
aF14.847092628479004
aF14.840370178222656
aF14.834075927734375
aF14.828173637390137
aF14.822637557983398
aF14.81743335723877
aF14.812540054321289
aF14.807931900024414
aF14.803590774536133
aF14.799495697021484
aF14.79562759399414
aF14.791972160339355
aF14.788517951965332
aF14.785243034362793
aF14.782140731811523
aF14.77919864654541
aF14.776406288146973
aF14.773754119873047
aF14.771232604980469
aF14.76883316040039
aF14.766550064086914
aF14.764373779296875
aF14.762298583984375
aF14.760320663452148
aF14.758431434631348
aF14.756628036499023
aF14.754903793334961
aF14.753253936767578
aF14.751675605773926
aF14.750166893005371
aF14.748717308044434
aF14.747329711914062
aF14.746001243591309
aF14.74472427368164
aF14.743501663208008
aF14.742324829101562
aF14.741196632385254
aF14.740110397338867
aF14.739068031311035
aF14.738064765930176
aF14.737098693847656
aF14.736167907714844
aF14.735272407531738
aF14.734411239624023
aF14.7335786819458
aF14.732779502868652
aF14.732006072998047
aF14.731260299682617
aF14.73054313659668
asVhyperparams/beta1
p52
(lp53
F0.8999999761581421
aF0.8999999761581421
aF0.8999999761581421
aF0.8999999761581421
aF0.8999999761581421
aF0.8999999761581421
aF0.8999999761581421
aF0.8999999761581421
aF0.8999999761581421
aF0.8999999761581421
aF0.8999999761581421
aF0.8999999761581421
aF0.8999999761581421
aF0.8999999761581421
aF0.8999999761581421
aF0.8999999761581421
aF0.8999999761581421
aF0.8999999761581421
aF0.8999999761581421
aF0.8999999761581421
aF0.8999999761581421
aF0.8999999761581421
aF0.8999999761581421
aF0.8999999761581421
aF0.8999999761581421
aF0.8999999761581421
aF0.8999999761581421
aF0.8999999761581421
aF0.8999999761581421
aF0.8999999761581421
aF0.8999999761581421
aF0.8999999761581421
aF0.8999999761581421
aF0.8999999761581421
aF0.8999999761581421
aF0.8999999761581421
aF0.8999999761581421
aF0.8999999761581421
aF0.8999999761581421
aF0.8999999761581421
aF0.8999999761581421
aF0.8999999761581421
aF0.8999999761581421
aF0.8999999761581421
aF0.8999999761581421
aF0.8999999761581421
aF0.8999999761581421
aF0.8999999761581421
aF0.8999999761581421
aF0.8999999761581421
aF0.8999999761581421
aF0.8999999761581421
aF0.8999999761581421
aF0.8999999761581421
aF0.8999999761581421
aF0.8999999761581421
aF0.8999999761581421
aF0.8999999761581421
aF0.8999999761581421
aF0.8999999761581421
aF0.8999999761581421
aF0.8999999761581421
aF0.8999999761581421
aF0.8999999761581421
aF0.8999999761581421
aF0.8999999761581421
aF0.8999999761581421
aF0.8999999761581421
aF0.8999999761581421
aF0.8999999761581421
aF0.8999999761581421
aF0.8999999761581421
aF0.8999999761581421
aF0.8999999761581421
aF0.8999999761581421
aF0.8999999761581421
aF0.8999999761581421
aF0.8999999761581421
aF0.8999999761581421
aF0.8999999761581421
aF0.8999999761581421
aF0.8999999761581421
aF0.8999999761581421
aF0.8999999761581421
aF0.8999999761581421
aF0.8999999761581421
aF0.8999999761581421
aF0.8999999761581421
aF0.8999999761581421
aF0.8999999761581421
aF0.8999999761581421
aF0.8999999761581421
aF0.8999999761581421
aF0.8999999761581421
aF0.8999999761581421
aF0.8999999761581421
aF0.8999999761581421
aF0.8999999761581421
aF0.8999999761581421
aF0.8999999761581421
aF0.8999999761581421
asVcheckpoint/checkpoint_test_loss
p54
(lp55
F328.4030456542969
aF61.045372009277344
aF37.20436477661133
aF19.610849380493164
aF15.020606994628906
aF14.988912582397461
aF9.987504959106445
aF8.763011932373047
aF8.072576522827148
aF7.276195526123047
aF6.190232753753662
aF5.856734275817871
aF5.437891006469727
aF4.886807918548584
aF4.656020164489746
aF4.3571319580078125
aF4.079745292663574
aF3.897728443145752
aF3.700853109359741
aF3.5381014347076416
aF3.4012434482574463
aF3.273623466491699
aF3.1639962196350098
aF3.066697359085083
aF2.979654550552368
aF2.9021599292755127
aF2.83323335647583
aF2.771183967590332
aF2.7155275344848633
aF2.6656036376953125
aF2.6203861236572266
aF2.5796639919281006
aF2.5427684783935547
aF2.5092761516571045
aF2.4788951873779297
aF2.4512059688568115
aF2.425981044769287
aF2.402941942214966
aF2.381866693496704
aF2.362562894821167
aF2.34485125541687
aF2.328578233718872
aF2.313603401184082
aF2.299804449081421
aF2.287074327468872
aF2.2753114700317383
aF2.26442813873291
aF2.2543487548828125
aF2.2450003623962402
aF2.2363176345825195
aF2.228247880935669
aF2.220733404159546
aF2.213732957839966
aF2.2072033882141113
aF2.201103687286377
aF2.195402145385742
aF2.1900668144226074
aF2.1850688457489014
aF2.1803817749023438
aF2.1759824752807617
aF2.1718506813049316
aF2.167963743209839
aF2.164306879043579
aF2.1608622074127197
aF2.157614231109619
aF2.1545493602752686
aF2.1516571044921875
aF2.1489224433898926
aF2.146336078643799
aF2.1438891887664795
aF2.141570568084717
aF2.1393749713897705
aF2.137291431427002
aF2.135315418243408
aF2.1334362030029297
aF2.1316535472869873
aF2.129958391189575
aF2.1283445358276367
aF2.12680983543396
aF2.125347137451172
aF2.1239542961120605
aF2.1226255893707275
aF2.121358871459961
aF2.120152235031128
aF2.1189963817596436
aF2.1178951263427734
aF2.116842269897461
aF2.1158347129821777
aF2.114873170852661
aF2.11395263671875
aF2.113070487976074
aF2.1122262477874756
aF2.1114187240600586
aF2.1106441020965576
aF2.1099014282226562
aF2.1091909408569336
aF2.1085073947906494
aF2.107851982116699
aF2.107224464416504
aF2.1066207885742188
aF2.10604190826416
asVtime/convergence_iterations
p56
(lp57
F0.0
aF0.0
aF0.0
aF0.0
aF0.0
aF0.0
aF0.0
aF0.0
aF0.0
aF0.0
aF10.0
aF10.0
aF10.0
aF10.0
aF10.0
aF10.0
aF10.0
aF10.0
aF10.0
aF10.0
aF10.0
aF10.0
aF10.0
aF10.0
aF10.0
aF10.0
aF10.0
aF10.0
aF10.0
aF10.0
aF10.0
aF10.0
aF10.0
aF10.0
aF10.0
aF10.0
aF10.0
aF10.0
aF10.0
aF10.0
aF10.0
aF10.0
aF10.0
aF10.0
aF10.0
aF10.0
aF10.0
aF10.0
aF10.0
aF10.0
aF10.0
aF10.0
aF10.0
aF10.0
aF10.0
aF10.0
aF10.0
aF10.0
aF10.0
aF10.0
aF10.0
aF10.0
aF10.0
aF10.0
aF10.0
aF10.0
aF10.0
aF10.0
aF10.0
aF10.0
aF10.0
aF10.0
aF10.0
aF10.0
aF10.0
aF10.0
aF10.0
aF10.0
aF10.0
aF10.0
aF10.0
aF10.0
aF10.0
aF10.0
aF10.0
aF10.0
aF10.0
aF10.0
aF10.0
aF10.0
aF10.0
aF10.0
aF10.0
aF10.0
aF10.0
aF10.0
aF10.0
aF10.0
aF10.0
aF10.0
aF10.0
as.