(dp0
S'checkpoint/checkpoint_steps'
p1
(lp2
I0
aI1
aI2
aI3
aI4
aI5
aI6
aI7
aI8
aI9
aI10
aI11
aI12
aI13
aI14
aI15
aI16
aI17
aI18
aI19
aI20
aI21
aI22
aI23
aI24
aI25
aI26
aI27
aI28
aI29
aI30
aI31
aI32
aI33
aI34
aI35
aI36
aI37
aI38
aI39
aI40
aI41
aI42
aI43
aI44
aI45
aI46
aI47
aI48
aI49
aI50
aI51
aI52
aI53
aI54
aI55
aI56
aI57
aI58
aI59
aI60
aI61
aI62
aI63
aI64
aI65
aI66
aI67
aI68
aI69
aI70
aI71
aI72
aI73
aI74
aI75
aI76
aI77
aI78
aI79
aI80
aI81
aI82
aI83
aI84
aI85
aI86
aI87
aI88
aI89
aI90
aI91
aI92
aI93
aI94
aI95
aI96
aI97
aI98
aI99
aI100
asVcheckpoint/checkpoint_train_acc
p3
(lp4
F0.09098101407289505
aF0.5254153609275818
aF0.6020569801330566
aF0.6160996556282043
aF0.6607990264892578
aF0.6513053774833679
aF0.7197389006614685
aF0.7143987417221069
aF0.7320016026496887
aF0.7289358973503113
aF0.7451542615890503
aF0.7503955960273743
aF0.7592958807945251
aF0.7616692781448364
aF0.7814477682113647
aF0.7935126423835754
aF0.8022152185440063
aF0.7958860993385315
aF0.7857990264892578
aF0.8126977682113647
aF0.8061708807945251
aF0.8116099834442139
aF0.8019185066223145
aF0.8044897317886353
aF0.8106210231781006
aF0.8207080960273743
aF0.8374208807945251
aF0.8233781456947327
aF0.8170490264892578
aF0.8173457384109497
aF0.8403876423835754
aF0.8434533476829529
aF0.8511669039726257
aF0.8379153609275818
aF0.8395965099334717
aF0.8384097814559937
aF0.8393987417221069
aF0.8289161324501038
aF0.8446400165557861
aF0.84375
aF0.8427610993385315
aF0.8404865264892578
aF0.8613528609275818
aF0.8515625
aF0.857594907283783
aF0.8518591523170471
aF0.8525514006614685
aF0.8638251423835754
aF0.8691653609275818
aF0.8692642450332642
aF0.8686708807945251
aF0.8658030033111572
aF0.8762856125831604
aF0.8650118708610535
aF0.8694620132446289
aF0.8799446225166321
aF0.8737143874168396
aF0.8720332384109497
aF0.8648141026496887
aF0.8794501423835754
aF0.8786590099334717
aF0.8851858973503113
aF0.8711432218551636
aF0.8769778609275818
aF0.8771756291389465
aF0.8674841523170471
aF0.8815268874168396
aF0.8809335231781006
aF0.8818235993385315
aF0.8849881291389465
aF0.8821202516555786
aF0.8864715099334717
aF0.8916139006614685
aF0.8915150165557861
aF0.8891416192054749
aF0.8914161324501038
aF0.8844936490058899
aF0.9026898741722107
aF0.8985363841056824
aF0.8942840099334717
aF0.8881527185440063
aF0.8916139006614685
aF0.8930972814559937
aF0.8858781456947327
aF0.8745055198669434
aF0.8959652185440063
aF0.8980419039726257
aF0.8988330960273743
aF0.8884493708610535
aF0.9010087251663208
aF0.8954707384109497
aF0.8892405033111572
aF0.8965585231781006
aF0.8935917615890503
aF0.904469907283783
aF0.9027887582778931
aF0.9005142450332642
aF0.903085470199585
aF0.9105023741722107
aF0.8984375
aF0.8971518874168396
asVhyperparams/learning_rate
p5
(lp6
F0.00025118861231021583
aF0.00025118861231021583
aF0.00025118861231021583
aF0.00025118861231021583
aF0.00025118861231021583
aF0.00025118861231021583
aF0.00025118861231021583
aF0.00025118861231021583
aF0.00025118861231021583
aF0.00025118861231021583
aF0.00025118861231021583
aF0.00025118861231021583
aF0.00025118861231021583
aF0.00025118861231021583
aF0.00025118861231021583
aF0.00025118861231021583
aF0.00025118861231021583
aF0.00025118861231021583
aF0.00025118861231021583
aF0.00025118861231021583
aF0.00025118861231021583
aF0.00025118861231021583
aF0.00025118861231021583
aF0.00025118861231021583
aF0.00025118861231021583
aF0.00025118861231021583
aF0.00025118861231021583
aF0.00025118861231021583
aF0.00025118861231021583
aF0.00025118861231021583
aF0.00025118861231021583
aF0.00025118861231021583
aF0.00025118861231021583
aF0.00025118861231021583
aF0.00025118861231021583
aF0.00025118861231021583
aF0.00025118861231021583
aF0.00025118861231021583
aF0.00025118861231021583
aF0.00025118861231021583
aF0.00025118861231021583
aF0.00025118861231021583
aF0.00025118861231021583
aF0.00025118861231021583
aF0.00025118861231021583
aF0.00025118861231021583
aF0.00025118861231021583
aF0.00025118861231021583
aF0.00025118861231021583
aF0.00025118861231021583
aF0.00025118861231021583
aF0.00025118861231021583
aF0.00025118861231021583
aF0.00025118861231021583
aF0.00025118861231021583
aF0.00025118861231021583
aF0.00025118861231021583
aF0.00025118861231021583
aF0.00025118861231021583
aF0.00025118861231021583
aF0.00025118861231021583
aF0.00025118861231021583
aF0.00025118861231021583
aF0.00025118861231021583
aF0.00025118861231021583
aF0.00025118861231021583
aF0.00025118861231021583
aF0.00025118861231021583
aF0.00025118861231021583
aF0.00025118861231021583
aF0.00025118861231021583
aF0.00025118861231021583
aF0.00025118861231021583
aF0.00025118861231021583
aF0.00025118861231021583
aF0.00025118861231021583
aF0.00025118861231021583
aF0.00025118861231021583
aF0.00025118861231021583
aF0.00025118861231021583
aF0.00025118861231021583
aF0.00025118861231021583
aF0.00025118861231021583
aF0.00025118861231021583
aF0.00025118861231021583
aF0.00025118861231021583
aF0.00025118861231021583
aF0.00025118861231021583
aF0.00025118861231021583
aF0.00025118861231021583
aF0.00025118861231021583
aF0.00025118861231021583
aF0.00025118861231021583
aF0.00025118861231021583
aF0.00025118861231021583
aF0.00025118861231021583
aF0.00025118861231021583
aF0.00025118861231021583
aF0.00025118861231021583
aF0.00025118861231021583
aF0.00025118861231021583
asVtime/percentage_convergence_performance
p7
(lp8
F0.11395501345396042
aF0.6249608397483826
aF0.7266125082969666
aF0.7514580488204956
aF0.7911153435707092
aF0.7833511233329773
aF0.8668464422225952
aF0.853468120098114
aF0.9017257690429688
aF0.8989784121513367
aF0.9029202461242676
aF0.9121178984642029
aF0.9145069122314453
aF0.9190459847450256
aF0.932066023349762
aF0.9441304206848145
aF0.9483111500740051
aF0.9507001638412476
aF0.9419803023338318
aF0.9515362977981567
aF0.9541642069816589
aF0.9413830637931824
aF0.9662286043167114
aF0.9572699069976807
aF0.9819959402084351
aF0.9632423520088196
aF0.9868934154510498
aF0.9796069860458374
aF0.9695731997489929
aF0.9689759612083435
aF0.9855794310569763
aF0.9876101016998291
aF0.9934631586074829
aF0.9796069860458374
aF0.9862961769104004
aF0.9847432971000671
aF0.9802042245864868
aF0.9867739677429199
aF0.983907163143158
aF0.9882073402404785
aF0.9909546971321106
aF0.9864156246185303
aF1.0017051696777344
aF1.0054081678390503
aF0.9969272017478943
aF0.9983605742454529
aF0.9932242631912231
aF0.9931048154830933
aF0.9980022311210632
aF1.0063637495040894
aF1.0015857219696045
aF1.0055276155471802
aF1.0093499422073364
aF0.9946576356887817
aF1.0120972394943237
aF1.0181891918182373
aF1.0116194486618042
aF1.0074387788772583
aF0.9984800219535828
aF1.011738896369934
aF1.0002717971801758
aF1.0136501789093018
aF1.0115000009536743
aF1.0060054063796997
aF1.0110222101211548
aF1.004213571548462
aF1.0146057605743408
aF1.0080360174179077
aF1.0062443017959595
aF1.014366865158081
aF1.0187864303588867
aF1.008872151374817
aF1.0223699808120728
aF1.0162780284881592
aF1.0169947147369385
aF1.0148446559906006
aF1.0080360174179077
aF1.0129334926605225
aF1.0152029991149902
aF1.014366865158081
aF1.0082749128341675
aF1.009827733039856
aF1.019503116607666
aF1.014366865158081
aF0.9983605742454529
aF1.019981026649475
aF1.0192642211914062
aF1.0212949514389038
aF1.014486312866211
aF1.0156807899475098
aF1.01544189453125
aF1.0081554651260376
aF1.0153224468231201
aF1.003019094467163
aF1.0236839056015015
aF1.0257145166397095
aF1.0238033533096313
aF1.0260728597640991
aF1.0228477716445923
aF1.0046913623809814
aF1.0048108100891113
asVcheckpoint/checkpoint_test_acc
p9
(lp10
F0.09434335678815842
aF0.517405092716217
aF0.6015625
aF0.6221321225166321
aF0.6549643874168396
aF0.6485363841056824
aF0.7176621556282043
aF0.7065862417221069
aF0.7465387582778931
aF0.7442642450332642
aF0.7475277185440063
aF0.7551423907279968
aF0.7571202516555786
aF0.7608781456947327
aF0.771657407283783
aF0.7816455960273743
aF0.7851067781448364
aF0.7870846390724182
aF0.7798655033111572
aF0.7877768874168396
aF0.7899525165557861
aF0.7793710231781006
aF0.7999406456947327
aF0.7925237417221069
aF0.8129944801330566
aF0.797468364238739
aF0.8170490264892578
aF0.8110166192054749
aF0.8027096390724182
aF0.8022152185440063
aF0.8159612417221069
aF0.8176423907279968
aF0.8224881291389465
aF0.8110166192054749
aF0.816554605960846
aF0.8152689933776855
aF0.8115110993385315
aF0.8169501423835754
aF0.8145767450332642
aF0.8181368708610535
aF0.8204113841056824
aF0.8166534900665283
aF0.829311728477478
aF0.8323773741722107
aF0.8253560066223145
aF0.8265427350997925
aF0.8222903609275818
aF0.8221914768218994
aF0.8262460231781006
aF0.8331685066223145
aF0.8292128443717957
aF0.8324762582778931
aF0.8356408476829529
aF0.823477029800415
aF0.8379153609275818
aF0.8429588675498962
aF0.8375197649002075
aF0.8340585231781006
aF0.8266416192054749
aF0.8376186490058899
aF0.828125
aF0.8392009735107422
aF0.8374208807945251
aF0.8328718543052673
aF0.8370253443717957
aF0.8313884735107422
aF0.839992105960846
aF0.8345530033111572
aF0.8330696225166321
aF0.8397942781448364
aF0.8434533476829529
aF0.8352452516555786
aF0.8464201092720032
aF0.8413766026496887
aF0.841969907283783
aF0.8401898741722107
aF0.8345530033111572
aF0.8386076092720032
aF0.8404865264892578
aF0.8397942781448364
aF0.834750771522522
aF0.8360363841056824
aF0.8440466523170471
aF0.8397942781448364
aF0.8265427350997925
aF0.8444422483444214
aF0.8438488841056824
aF0.845530092716217
aF0.8398932218551636
aF0.8408821225166321
aF0.8406843543052673
aF0.8346518874168396
aF0.840585470199585
aF0.8303995132446289
aF0.847507894039154
aF0.8491891026496887
aF0.8476067781448364
aF0.8494857549667358
aF0.8468156456947327
aF0.8317840099334717
aF0.831882894039154
asS'training/training_steps'
p11
(lp12
I1
aI11
aI21
aI31
aI41
aI51
aI61
aI71
aI81
aI91
aI101
aI111
aI121
aI131
aI141
aI151
aI161
aI171
aI181
aI191
aI201
aI211
aI221
aI231
aI241
aI251
aI261
aI271
aI281
aI291
aI301
aI311
aI321
aI331
aI341
aI351
aI361
aI371
aI381
aI391
aI401
aI411
aI421
aI431
aI441
aI451
aI461
aI471
aI481
aI491
aI501
aI511
aI521
aI531
aI541
aI551
aI561
aI571
aI581
aI591
aI601
aI611
aI621
aI631
aI641
aI651
aI661
aI671
aI681
aI691
aI701
aI711
aI721
aI731
aI741
aI751
aI761
aI771
aI781
aI791
aI801
aI811
aI821
aI831
aI841
aI851
aI861
aI871
aI881
aI891
aI901
aI911
aI921
aI931
aI941
aI951
aI961
aI971
aI981
aI991
aI1001
aI1011
aI1021
aI1031
aI1041
aI1051
aI1061
aI1071
aI1081
aI1091
aI1101
aI1111
aI1121
aI1131
aI1141
aI1151
aI1161
aI1171
aI1181
aI1191
aI1201
aI1211
aI1221
aI1231
aI1241
aI1251
aI1261
aI1271
aI1281
aI1291
aI1301
aI1311
aI1321
aI1331
aI1341
aI1351
aI1361
aI1371
aI1381
aI1391
aI1401
aI1411
aI1421
aI1431
aI1441
aI1451
aI1461
aI1471
aI1481
aI1491
aI1501
aI1511
aI1521
aI1531
aI1541
aI1551
aI1561
aI1571
aI1581
aI1591
aI1601
aI1611
aI1621
aI1631
aI1641
aI1651
aI1661
aI1671
aI1681
aI1691
aI1701
aI1711
aI1721
aI1731
aI1741
aI1751
aI1761
aI1771
aI1781
aI1791
aI1801
aI1811
aI1821
aI1831
aI1841
aI1851
aI1861
aI1871
aI1881
aI1891
aI1901
aI1911
aI1921
aI1931
aI1941
aI1951
aI1961
aI1971
aI1981
aI1991
aI2001
aI2011
aI2021
aI2031
aI2041
aI2051
aI2061
aI2071
aI2081
aI2091
aI2101
aI2111
aI2121
aI2131
aI2141
aI2151
aI2161
aI2171
aI2181
aI2191
aI2201
aI2211
aI2221
aI2231
aI2241
aI2251
aI2261
aI2271
aI2281
aI2291
aI2301
aI2311
aI2321
aI2331
aI2341
aI2351
aI2361
aI2371
aI2381
aI2391
aI2401
aI2411
aI2421
aI2431
aI2441
aI2451
aI2461
aI2471
aI2481
aI2491
aI2501
aI2511
aI2521
aI2531
aI2541
aI2551
aI2561
aI2571
aI2581
aI2591
aI2601
aI2611
aI2621
aI2631
aI2641
aI2651
aI2661
aI2671
aI2681
aI2691
aI2701
aI2711
aI2721
aI2731
aI2741
aI2751
aI2761
aI2771
aI2781
aI2791
aI2801
aI2811
aI2821
aI2831
aI2841
aI2851
aI2861
aI2871
aI2881
aI2891
aI2901
aI2911
aI2921
aI2931
aI2941
aI2951
aI2961
aI2971
aI2981
aI2991
aI3001
aI3011
aI3021
aI3031
aI3041
aI3051
aI3061
aI3071
aI3081
aI3091
aI3101
aI3111
aI3121
aI3131
aI3141
aI3151
aI3161
aI3171
aI3181
aI3191
aI3201
aI3211
aI3221
aI3231
aI3241
aI3251
aI3261
aI3271
aI3281
aI3291
aI3301
aI3311
aI3321
aI3331
aI3341
aI3351
aI3361
aI3371
aI3381
aI3391
aI3401
aI3411
aI3421
aI3431
aI3441
aI3451
aI3461
aI3471
aI3481
aI3491
aI3501
aI3511
aI3521
aI3531
aI3541
aI3551
aI3561
aI3571
aI3581
aI3591
aI3601
aI3611
aI3621
aI3631
aI3641
aI3651
aI3661
aI3671
aI3681
aI3691
aI3701
aI3711
aI3721
aI3731
aI3741
aI3751
aI3761
aI3771
aI3781
aI3791
aI3801
aI3811
aI3821
aI3831
aI3841
aI3851
aI3861
aI3871
aI3881
aI3891
aI3901
aI3911
aI3921
aI3931
aI3941
aI3951
aI3961
aI3971
aI3981
aI3991
aI4001
aI4011
aI4021
aI4031
aI4041
aI4051
aI4061
aI4071
aI4081
aI4091
aI4101
aI4111
aI4121
aI4131
aI4141
aI4151
aI4161
aI4171
aI4181
aI4191
aI4201
aI4211
aI4221
aI4231
aI4241
aI4251
aI4261
aI4271
aI4281
aI4291
aI4301
aI4311
aI4321
aI4331
aI4341
aI4351
aI4361
aI4371
aI4381
aI4391
aI4401
aI4411
aI4421
aI4431
aI4441
aI4451
aI4461
aI4471
aI4481
aI4491
aI4501
aI4511
aI4521
aI4531
aI4541
aI4551
aI4561
aI4571
aI4581
aI4591
aI4601
aI4611
aI4621
aI4631
aI4641
aI4651
aI4661
aI4671
aI4681
aI4691
aI4701
aI4711
aI4721
aI4731
aI4741
aI4751
aI4761
aI4771
aI4781
aI4791
aI4801
aI4811
aI4821
aI4831
aI4841
aI4851
aI4861
aI4871
aI4881
aI4891
aI4901
aI4911
aI4921
aI4931
aI4941
aI4951
aI4961
aI4971
aI4981
aI4991
aI5001
aI5011
aI5021
aI5031
aI5041
aI5051
aI5061
aI5071
aI5081
aI5091
aI5101
aI5111
aI5121
aI5131
aI5141
aI5151
aI5161
aI5171
aI5181
aI5191
aI5201
aI5211
aI5221
aI5231
aI5241
aI5251
aI5261
aI5271
aI5281
aI5291
aI5301
aI5311
aI5321
aI5331
aI5341
aI5351
aI5361
aI5371
aI5381
aI5391
aI5401
aI5411
aI5421
aI5431
aI5441
aI5451
aI5461
aI5471
aI5481
aI5491
aI5501
aI5511
aI5521
aI5531
aI5541
aI5551
aI5561
aI5571
aI5581
aI5591
aI5601
aI5611
aI5621
aI5631
aI5641
aI5651
aI5661
aI5671
aI5681
aI5691
aI5701
aI5711
aI5721
aI5731
aI5741
aI5751
aI5761
aI5771
aI5781
aI5791
aI5801
aI5811
aI5821
aI5831
aI5841
aI5851
aI5861
aI5871
aI5881
aI5891
aI5901
aI5911
aI5921
aI5931
aI5941
aI5951
aI5961
aI5971
aI5981
aI5991
aI6001
aI6011
aI6021
aI6031
aI6041
aI6051
aI6061
aI6071
aI6081
aI6091
aI6101
aI6111
aI6121
aI6131
aI6141
aI6151
aI6161
aI6171
aI6181
aI6191
aI6201
aI6211
aI6221
aI6231
aI6241
aI6251
aI6261
aI6271
aI6281
aI6291
aI6301
aI6311
aI6321
aI6331
aI6341
aI6351
aI6361
aI6371
aI6381
aI6391
aI6401
aI6411
aI6421
aI6431
aI6441
aI6451
aI6461
aI6471
aI6481
aI6491
aI6501
aI6511
aI6521
aI6531
aI6541
aI6551
aI6561
aI6571
aI6581
aI6591
aI6601
aI6611
aI6621
aI6631
aI6641
aI6651
aI6661
aI6671
aI6681
aI6691
aI6701
aI6711
aI6721
aI6731
aI6741
aI6751
aI6761
aI6771
aI6781
aI6791
aI6801
aI6811
aI6821
aI6831
aI6841
aI6851
aI6861
aI6871
aI6881
aI6891
aI6901
aI6911
aI6921
aI6931
aI6941
aI6951
aI6961
aI6971
aI6981
aI6991
aI7001
aI7011
aI7021
aI7031
aI7041
aI7051
aI7061
aI7071
aI7081
aI7091
aI7101
aI7111
aI7121
aI7131
aI7141
aI7151
aI7161
aI7171
aI7181
aI7191
aI7201
aI7211
aI7221
aI7231
aI7241
aI7251
aI7261
aI7271
aI7281
aI7291
aI7301
aI7311
aI7321
aI7331
aI7341
aI7351
aI7361
aI7371
aI7381
aI7391
aI7401
aI7411
aI7421
aI7431
aI7441
aI7451
aI7461
aI7471
aI7481
aI7491
aI7501
aI7511
aI7521
aI7531
aI7541
aI7551
aI7561
aI7571
aI7581
aI7591
aI7601
aI7611
aI7621
aI7631
aI7641
aI7651
aI7661
aI7671
aI7681
aI7691
aI7701
aI7711
aI7721
aI7731
aI7741
aI7751
aI7761
aI7771
aI7781
aI7791
aI7801
aI7811
aI7821
aI7831
aI7841
aI7851
aI7861
aI7871
aI7881
aI7891
aI7901
aI7911
aI7921
aI7931
aI7941
aI7951
aI7961
aI7971
aI7981
aI7991
aI8001
aI8011
aI8021
aI8031
aI8041
aI8051
aI8061
aI8071
aI8081
aI8091
aI8101
aI8111
aI8121
aI8131
aI8141
aI8151
aI8161
aI8171
aI8181
aI8191
aI8201
aI8211
aI8221
aI8231
aI8241
aI8251
aI8261
aI8271
aI8281
aI8291
aI8301
aI8311
aI8321
aI8331
aI8341
aI8351
aI8361
aI8371
aI8381
aI8391
aI8401
aI8411
aI8421
aI8431
aI8441
aI8451
aI8461
aI8471
aI8481
aI8491
aI8501
aI8511
aI8521
aI8531
aI8541
aI8551
aI8561
aI8571
aI8581
aI8591
aI8601
aI8611
aI8621
aI8631
aI8641
aI8651
aI8661
aI8671
aI8681
aI8691
aI8701
aI8711
aI8721
aI8731
aI8741
aI8751
aI8761
aI8771
aI8781
aI8791
aI8801
aI8811
aI8821
aI8831
aI8841
aI8851
aI8861
aI8871
aI8881
aI8891
aI8901
aI8911
aI8921
aI8931
aI8941
aI8951
aI8961
aI8971
aI8981
aI8991
aI9001
aI9011
aI9021
aI9031
aI9041
aI9051
aI9061
aI9071
aI9081
aI9091
aI9101
aI9111
aI9121
aI9131
aI9141
aI9151
aI9161
aI9171
aI9181
aI9191
aI9201
aI9211
aI9221
aI9231
aI9241
aI9251
aI9261
aI9271
aI9281
aI9291
aI9301
aI9311
aI9321
aI9331
aI9341
aI9351
aI9361
aI9371
aI9381
aI9391
aI9401
aI9411
aI9421
aI9431
aI9441
aI9451
aI9461
aI9471
aI9481
aI9491
aI9501
aI9511
aI9521
aI9531
aI9541
aI9551
aI9561
aI9571
aI9581
aI9591
aI9601
aI9611
aI9621
aI9631
aI9641
aI9651
aI9661
aI9671
aI9681
aI9691
aI9701
aI9711
aI9721
aI9731
aI9741
aI9751
aI9761
aI9771
aI9781
aI9791
aI9801
aI9811
aI9821
aI9831
aI9841
aI9851
aI9861
aI9871
aI9881
aI9891
aI9901
aI9911
aI9921
aI9931
aI9941
aI9951
aI9961
aI9971
aI9981
aI9991
aI10001
aI10011
aI10021
aI10031
aI10041
aI10051
aI10061
aI10071
aI10081
aI10091
aI10101
aI10111
aI10121
aI10131
aI10141
aI10151
aI10161
aI10171
aI10181
aI10191
aI10201
aI10211
aI10221
aI10231
aI10241
aI10251
aI10261
aI10271
aI10281
aI10291
aI10301
aI10311
aI10321
aI10331
aI10341
aI10351
aI10361
aI10371
aI10381
aI10391
aI10401
aI10411
aI10421
aI10431
aI10441
aI10451
aI10461
aI10471
aI10481
aI10491
aI10501
aI10511
aI10521
aI10531
aI10541
aI10551
aI10561
aI10571
aI10581
aI10591
aI10601
aI10611
aI10621
aI10631
aI10641
aI10651
aI10661
aI10671
aI10681
aI10691
aI10701
aI10711
aI10721
aI10731
aI10741
aI10751
aI10761
aI10771
aI10781
aI10791
aI10801
aI10811
aI10821
aI10831
aI10841
aI10851
aI10861
aI10871
aI10881
aI10891
aI10901
aI10911
aI10921
aI10931
aI10941
aI10951
aI10961
aI10971
aI10981
aI10991
aI11001
aI11011
aI11021
aI11031
aI11041
aI11051
aI11061
aI11071
aI11081
aI11091
aI11101
aI11111
aI11121
aI11131
aI11141
aI11151
aI11161
aI11171
aI11181
aI11191
aI11201
aI11211
aI11221
aI11231
aI11241
aI11251
aI11261
aI11271
aI11281
aI11291
aI11301
aI11311
aI11321
aI11331
aI11341
aI11351
aI11361
aI11371
aI11381
aI11391
aI11401
aI11411
aI11421
aI11431
aI11441
aI11451
aI11461
aI11471
aI11481
aI11491
aI11501
aI11511
aI11521
aI11531
aI11541
aI11551
aI11561
aI11571
aI11581
aI11591
aI11601
aI11611
aI11621
aI11631
aI11641
aI11651
aI11661
aI11671
aI11681
aI11691
aI11701
aI11711
aI11721
aI11731
aI11741
aI11751
aI11761
aI11771
aI11781
aI11791
aI11801
aI11811
aI11821
aI11831
aI11841
aI11851
aI11861
aI11871
aI11881
aI11891
aI11901
aI11911
aI11921
aI11931
aI11941
aI11951
aI11961
aI11971
aI11981
aI11991
aI12001
aI12011
aI12021
aI12031
aI12041
aI12051
aI12061
aI12071
aI12081
aI12091
aI12101
aI12111
aI12121
aI12131
aI12141
aI12151
aI12161
aI12171
aI12181
aI12191
aI12201
aI12211
aI12221
aI12231
aI12241
aI12251
aI12261
aI12271
aI12281
aI12291
aI12301
aI12311
aI12321
aI12331
aI12341
aI12351
aI12361
aI12371
aI12381
aI12391
aI12401
aI12411
aI12421
aI12431
aI12441
aI12451
aI12461
aI12471
aI12481
aI12491
aI12501
aI12511
aI12521
aI12531
aI12541
aI12551
aI12561
aI12571
aI12581
aI12591
aI12601
aI12611
aI12621
aI12631
aI12641
aI12651
aI12661
aI12671
aI12681
aI12691
aI12701
aI12711
aI12721
aI12731
aI12741
aI12751
aI12761
aI12771
aI12781
aI12791
aI12801
aI12811
aI12821
aI12831
aI12841
aI12851
aI12861
aI12871
aI12881
aI12891
aI12901
aI12911
aI12921
aI12931
aI12941
aI12951
aI12961
aI12971
aI12981
aI12991
aI13001
aI13011
aI13021
aI13031
aI13041
aI13051
aI13061
aI13071
aI13081
aI13091
aI13101
aI13111
aI13121
aI13131
aI13141
aI13151
aI13161
aI13171
aI13181
aI13191
aI13201
aI13211
aI13221
aI13231
aI13241
aI13251
aI13261
aI13271
aI13281
aI13291
aI13301
aI13311
aI13321
aI13331
aI13341
aI13351
aI13361
aI13371
aI13381
aI13391
aI13401
aI13411
aI13421
aI13431
aI13441
aI13451
aI13461
aI13471
aI13481
aI13491
aI13501
aI13511
aI13521
aI13531
aI13541
aI13551
aI13561
aI13571
aI13581
aI13591
aI13601
aI13611
aI13621
aI13631
aI13641
aI13651
aI13661
aI13671
aI13681
aI13691
aI13701
aI13711
aI13721
aI13731
aI13741
aI13751
aI13761
aI13771
aI13781
aI13791
aI13801
aI13811
aI13821
aI13831
aI13841
aI13851
aI13861
aI13871
aI13881
aI13891
aI13901
aI13911
aI13921
aI13931
aI13941
aI13951
aI13961
aI13971
aI13981
aI13991
aI14001
aI14011
aI14021
aI14031
aI14041
aI14051
aI14061
aI14071
aI14081
aI14091
aI14101
aI14111
aI14121
aI14131
aI14141
aI14151
aI14161
aI14171
aI14181
aI14191
aI14201
aI14211
aI14221
aI14231
aI14241
aI14251
aI14261
aI14271
aI14281
aI14291
aI14301
aI14311
aI14321
aI14331
aI14341
aI14351
aI14361
aI14371
aI14381
aI14391
aI14401
aI14411
aI14421
aI14431
aI14441
aI14451
aI14461
aI14471
aI14481
aI14491
aI14501
aI14511
aI14521
aI14531
aI14541
aI14551
aI14561
aI14571
aI14581
aI14591
aI14601
aI14611
aI14621
aI14631
aI14641
aI14651
aI14661
aI14671
aI14681
aI14691
aI14701
aI14711
aI14721
aI14731
aI14741
aI14751
aI14761
aI14771
aI14781
aI14791
aI14801
aI14811
aI14821
aI14831
aI14841
aI14851
aI14861
aI14871
aI14881
aI14891
aI14901
aI14911
aI14921
aI14931
aI14941
aI14951
aI14961
aI14971
aI14981
aI14991
aI15001
aI15011
aI15021
aI15031
aI15041
aI15051
aI15061
aI15071
aI15081
aI15091
aI15101
aI15111
aI15121
aI15131
aI15141
aI15151
aI15161
aI15171
aI15181
aI15191
aI15201
aI15211
aI15221
aI15231
aI15241
aI15251
aI15261
aI15271
aI15281
aI15291
aI15301
aI15311
aI15321
aI15331
aI15341
aI15351
aI15361
aI15371
aI15381
aI15391
aI15401
aI15411
aI15421
aI15431
aI15441
aI15451
aI15461
aI15471
aI15481
aI15491
aI15501
aI15511
aI15521
aI15531
aI15541
aI15551
aI15561
aI15571
aI15581
aI15591
aI15601
aI15611
aI15621
aI15631
aI15641
aI15651
aI15661
aI15671
aI15681
aI15691
aI15701
aI15711
aI15721
aI15731
aI15741
aI15751
aI15761
aI15771
aI15781
aI15791
aI15801
aI15811
aI15821
aI15831
aI15841
aI15851
aI15861
aI15871
aI15881
aI15891
aI15901
aI15911
aI15921
aI15931
aI15941
aI15951
aI15961
aI15971
aI15981
aI15991
aI16001
aI16011
aI16021
aI16031
aI16041
aI16051
aI16061
aI16071
aI16081
aI16091
aI16101
aI16111
aI16121
aI16131
aI16141
aI16151
aI16161
aI16171
aI16181
aI16191
aI16201
aI16211
aI16221
aI16231
aI16241
aI16251
aI16261
aI16271
aI16281
aI16291
aI16301
aI16311
aI16321
aI16331
aI16341
aI16351
aI16361
aI16371
aI16381
aI16391
aI16401
aI16411
aI16421
aI16431
aI16441
aI16451
aI16461
aI16471
aI16481
aI16491
aI16501
aI16511
aI16521
aI16531
aI16541
aI16551
aI16561
aI16571
aI16581
aI16591
aI16601
aI16611
aI16621
aI16631
aI16641
aI16651
aI16661
aI16671
aI16681
aI16691
aI16701
aI16711
aI16721
aI16731
aI16741
aI16751
aI16761
aI16771
aI16781
aI16791
aI16801
aI16811
aI16821
aI16831
aI16841
aI16851
aI16861
aI16871
aI16881
aI16891
aI16901
aI16911
aI16921
aI16931
aI16941
aI16951
aI16961
aI16971
aI16981
aI16991
aI17001
aI17011
aI17021
aI17031
aI17041
aI17051
aI17061
aI17071
aI17081
aI17091
aI17101
aI17111
aI17121
aI17131
aI17141
aI17151
aI17161
aI17171
aI17181
aI17191
aI17201
aI17211
aI17221
aI17231
aI17241
aI17251
aI17261
aI17271
aI17281
aI17291
aI17301
aI17311
aI17321
aI17331
aI17341
aI17351
aI17361
aI17371
aI17381
aI17391
aI17401
aI17411
aI17421
aI17431
aI17441
aI17451
aI17461
aI17471
aI17481
aI17491
aI17501
aI17511
aI17521
aI17531
aI17541
aI17551
aI17561
aI17571
aI17581
aI17591
aI17601
aI17611
aI17621
aI17631
aI17641
aI17651
aI17661
aI17671
aI17681
aI17691
aI17701
aI17711
aI17721
aI17731
aI17741
aI17751
aI17761
aI17771
aI17781
aI17791
aI17801
aI17811
aI17821
aI17831
aI17841
aI17851
aI17861
aI17871
aI17881
aI17891
aI17901
aI17911
aI17921
aI17931
aI17941
aI17951
aI17961
aI17971
aI17981
aI17991
aI18001
aI18011
aI18021
aI18031
aI18041
aI18051
aI18061
aI18071
aI18081
aI18091
aI18101
aI18111
aI18121
aI18131
aI18141
aI18151
aI18161
aI18171
aI18181
aI18191
aI18201
aI18211
aI18221
aI18231
aI18241
aI18251
aI18261
aI18271
aI18281
aI18291
aI18301
aI18311
aI18321
aI18331
aI18341
aI18351
aI18361
aI18371
aI18381
aI18391
aI18401
aI18411
aI18421
aI18431
aI18441
aI18451
aI18461
aI18471
aI18481
aI18491
aI18501
aI18511
aI18521
aI18531
aI18541
aI18551
aI18561
aI18571
aI18581
aI18591
aI18601
aI18611
aI18621
aI18631
aI18641
aI18651
aI18661
aI18671
aI18681
aI18691
aI18701
aI18711
aI18721
aI18731
aI18741
aI18751
aI18761
aI18771
aI18781
aI18791
aI18801
aI18811
aI18821
aI18831
aI18841
aI18851
aI18861
aI18871
aI18881
aI18891
aI18901
aI18911
aI18921
aI18931
aI18941
aI18951
aI18961
aI18971
aI18981
aI18991
aI19001
aI19011
aI19021
aI19031
aI19041
aI19051
aI19061
aI19071
aI19081
aI19091
aI19101
aI19111
aI19121
aI19131
aI19141
aI19151
aI19161
aI19171
aI19181
aI19191
aI19201
aI19211
aI19221
aI19231
aI19241
aI19251
aI19261
aI19271
aI19281
aI19291
aI19301
aI19311
aI19321
aI19331
aI19341
aI19351
aI19361
aI19371
aI19381
aI19391
aI19401
aI19411
aI19421
aI19431
aI19441
aI19451
aI19461
aI19471
aI19481
aI19491
aI19501
aI19511
aI19521
aI19531
aI19541
aI19551
aI19561
aI19571
aI19581
aI19591
aI19601
aI19611
aI19621
aI19631
aI19641
aI19651
aI19661
aI19671
aI19681
aI19691
aI19701
aI19711
aI19721
aI19731
aI19741
aI19751
aI19761
aI19771
aI19781
aI19791
aI19801
aI19811
aI19821
aI19831
aI19841
aI19851
aI19861
aI19871
aI19881
aI19891
aI19901
aI19911
aI19921
aI19931
aI19941
aI19951
aI19961
aI19971
aI19981
aI19991
aI20001
aI20011
aI20021
aI20031
aI20041
aI20051
aI20061
aI20071
aI20081
aI20091
aI20101
aI20111
aI20121
aI20131
aI20141
aI20151
aI20161
aI20171
aI20181
aI20191
aI20201
aI20211
aI20221
aI20231
aI20241
aI20251
aI20261
aI20271
aI20281
aI20291
aI20301
aI20311
aI20321
aI20331
aI20341
aI20351
aI20361
aI20371
aI20381
aI20391
aI20401
aI20411
aI20421
aI20431
aI20441
aI20451
aI20461
aI20471
aI20481
aI20491
aI20501
aI20511
aI20521
aI20531
aI20541
aI20551
aI20561
aI20571
aI20581
aI20591
aI20601
aI20611
aI20621
aI20631
aI20641
aI20651
aI20661
aI20671
aI20681
aI20691
aI20701
aI20711
aI20721
aI20731
aI20741
aI20751
aI20761
aI20771
aI20781
aI20791
aI20801
aI20811
aI20821
aI20831
aI20841
aI20851
aI20861
aI20871
aI20881
aI20891
aI20901
aI20911
aI20921
aI20931
aI20941
aI20951
aI20961
aI20971
aI20981
aI20991
aI21001
aI21011
aI21021
aI21031
aI21041
aI21051
aI21061
aI21071
aI21081
aI21091
aI21101
aI21111
aI21121
aI21131
aI21141
aI21151
aI21161
aI21171
aI21181
aI21191
aI21201
aI21211
aI21221
aI21231
aI21241
aI21251
aI21261
aI21271
aI21281
aI21291
aI21301
aI21311
aI21321
aI21331
aI21341
aI21351
aI21361
aI21371
aI21381
aI21391
aI21401
aI21411
aI21421
aI21431
aI21441
aI21451
aI21461
aI21471
aI21481
aI21491
aI21501
aI21511
aI21521
aI21531
aI21541
aI21551
aI21561
aI21571
aI21581
aI21591
aI21601
aI21611
aI21621
aI21631
aI21641
aI21651
aI21661
aI21671
aI21681
aI21691
aI21701
aI21711
aI21721
aI21731
aI21741
aI21751
aI21761
aI21771
aI21781
aI21791
aI21801
aI21811
aI21821
aI21831
aI21841
aI21851
aI21861
aI21871
aI21881
aI21891
aI21901
aI21911
aI21921
aI21931
aI21941
aI21951
aI21961
aI21971
aI21981
aI21991
aI22001
aI22011
aI22021
aI22031
aI22041
aI22051
aI22061
aI22071
aI22081
aI22091
aI22101
aI22111
aI22121
aI22131
aI22141
aI22151
aI22161
aI22171
aI22181
aI22191
aI22201
aI22211
aI22221
aI22231
aI22241
aI22251
aI22261
aI22271
aI22281
aI22291
aI22301
aI22311
aI22321
aI22331
aI22341
aI22351
aI22361
aI22371
aI22381
aI22391
aI22401
aI22411
aI22421
aI22431
aI22441
aI22451
aI22461
aI22471
aI22481
aI22491
aI22501
aI22511
aI22521
aI22531
aI22541
aI22551
aI22561
aI22571
aI22581
aI22591
aI22601
aI22611
aI22621
aI22631
aI22641
aI22651
aI22661
aI22671
aI22681
aI22691
aI22701
aI22711
aI22721
aI22731
aI22741
aI22751
aI22761
aI22771
aI22781
aI22791
aI22801
aI22811
aI22821
aI22831
aI22841
aI22851
aI22861
aI22871
aI22881
aI22891
aI22901
aI22911
aI22921
aI22931
aI22941
aI22951
aI22961
aI22971
aI22981
aI22991
aI23001
aI23011
aI23021
aI23031
aI23041
aI23051
aI23061
aI23071
aI23081
aI23091
aI23101
aI23111
aI23121
aI23131
aI23141
aI23151
aI23161
aI23171
aI23181
aI23191
aI23201
aI23211
aI23221
aI23231
aI23241
aI23251
aI23261
aI23271
aI23281
aI23291
aI23301
aI23311
aI23321
aI23331
aI23341
aI23351
aI23361
aI23371
aI23381
aI23391
aI23401
aI23411
aI23421
aI23431
aI23441
aI23451
aI23461
aI23471
aI23481
aI23491
aI23501
aI23511
aI23521
aI23531
aI23541
aI23551
aI23561
aI23571
aI23581
aI23591
aI23601
aI23611
aI23621
aI23631
aI23641
aI23651
aI23661
aI23671
aI23681
aI23691
aI23701
aI23711
aI23721
aI23731
aI23741
aI23751
aI23761
aI23771
aI23781
aI23791
aI23801
aI23811
aI23821
aI23831
aI23841
aI23851
aI23861
aI23871
aI23881
aI23891
aI23901
aI23911
aI23921
aI23931
aI23941
aI23951
aI23961
aI23971
aI23981
aI23991
aI24001
aI24011
aI24021
aI24031
aI24041
aI24051
aI24061
aI24071
aI24081
aI24091
aI24101
aI24111
aI24121
aI24131
aI24141
aI24151
aI24161
aI24171
aI24181
aI24191
aI24201
aI24211
aI24221
aI24231
aI24241
aI24251
aI24261
aI24271
aI24281
aI24291
aI24301
aI24311
aI24321
aI24331
aI24341
aI24351
aI24361
aI24371
aI24381
aI24391
aI24401
aI24411
aI24421
aI24431
aI24441
aI24451
aI24461
aI24471
aI24481
aI24491
aI24501
aI24511
aI24521
aI24531
aI24541
aI24551
aI24561
aI24571
aI24581
aI24591
aI24601
aI24611
aI24621
aI24631
aI24641
aI24651
aI24661
aI24671
aI24681
aI24691
aI24701
aI24711
aI24721
aI24731
aI24741
aI24751
aI24761
aI24771
aI24781
aI24791
aI24801
aI24811
aI24821
aI24831
aI24841
aI24851
aI24861
aI24871
aI24881
aI24891
aI24901
aI24911
aI24921
aI24931
aI24941
aI24951
aI24961
aI24971
aI24981
aI24991
aI25001
aI25011
aI25021
aI25031
aI25041
aI25051
aI25061
aI25071
aI25081
aI25091
aI25101
aI25111
aI25121
aI25131
aI25141
aI25151
aI25161
aI25171
aI25181
aI25191
aI25201
aI25211
aI25221
aI25231
aI25241
aI25251
aI25261
aI25271
aI25281
aI25291
aI25301
aI25311
aI25321
aI25331
aI25341
aI25351
aI25361
aI25371
aI25381
aI25391
aI25401
aI25411
aI25421
aI25431
aI25441
aI25451
aI25461
aI25471
aI25481
aI25491
aI25501
aI25511
aI25521
aI25531
aI25541
aI25551
aI25561
aI25571
aI25581
aI25591
aI25601
aI25611
aI25621
aI25631
aI25641
aI25651
aI25661
aI25671
aI25681
aI25691
aI25701
aI25711
aI25721
aI25731
aI25741
aI25751
aI25761
aI25771
aI25781
aI25791
aI25801
aI25811
aI25821
aI25831
aI25841
aI25851
aI25861
aI25871
aI25881
aI25891
aI25901
aI25911
aI25921
aI25931
aI25941
aI25951
aI25961
aI25971
aI25981
aI25991
aI26001
aI26011
aI26021
aI26031
aI26041
aI26051
aI26061
aI26071
aI26081
aI26091
aI26101
aI26111
aI26121
aI26131
aI26141
aI26151
aI26161
aI26171
aI26181
aI26191
aI26201
aI26211
aI26221
aI26231
aI26241
aI26251
aI26261
aI26271
aI26281
aI26291
aI26301
aI26311
aI26321
aI26331
aI26341
aI26351
aI26361
aI26371
aI26381
aI26391
aI26401
aI26411
aI26421
aI26431
aI26441
aI26451
aI26461
aI26471
aI26481
aI26491
aI26501
aI26511
aI26521
aI26531
aI26541
aI26551
aI26561
aI26571
aI26581
aI26591
aI26601
aI26611
aI26621
aI26631
aI26641
aI26651
aI26661
aI26671
aI26681
aI26691
aI26701
aI26711
aI26721
aI26731
aI26741
aI26751
aI26761
aI26771
aI26781
aI26791
aI26801
aI26811
aI26821
aI26831
aI26841
aI26851
aI26861
aI26871
aI26881
aI26891
aI26901
aI26911
aI26921
aI26931
aI26941
aI26951
aI26961
aI26971
aI26981
aI26991
aI27001
aI27011
aI27021
aI27031
aI27041
aI27051
aI27061
aI27071
aI27081
aI27091
aI27101
aI27111
aI27121
aI27131
aI27141
aI27151
aI27161
aI27171
aI27181
aI27191
aI27201
aI27211
aI27221
aI27231
aI27241
aI27251
aI27261
aI27271
aI27281
aI27291
aI27301
aI27311
aI27321
aI27331
aI27341
aI27351
aI27361
aI27371
aI27381
aI27391
aI27401
aI27411
aI27421
aI27431
aI27441
aI27451
aI27461
aI27471
aI27481
aI27491
aI27501
aI27511
aI27521
aI27531
aI27541
aI27551
aI27561
aI27571
aI27581
aI27591
aI27601
aI27611
aI27621
aI27631
aI27641
aI27651
aI27661
aI27671
aI27681
aI27691
aI27701
aI27711
aI27721
aI27731
aI27741
aI27751
aI27761
aI27771
aI27781
aI27791
aI27801
aI27811
aI27821
aI27831
aI27841
aI27851
aI27861
aI27871
aI27881
aI27891
aI27901
aI27911
aI27921
aI27931
aI27941
aI27951
aI27961
aI27971
aI27981
aI27991
aI28001
aI28011
aI28021
aI28031
aI28041
aI28051
aI28061
aI28071
aI28081
aI28091
aI28101
aI28111
aI28121
aI28131
aI28141
aI28151
aI28161
aI28171
aI28181
aI28191
aI28201
aI28211
aI28221
aI28231
aI28241
aI28251
aI28261
aI28271
aI28281
aI28291
aI28301
aI28311
aI28321
aI28331
aI28341
aI28351
aI28361
aI28371
aI28381
aI28391
aI28401
aI28411
aI28421
aI28431
aI28441
aI28451
aI28461
aI28471
aI28481
aI28491
aI28501
aI28511
aI28521
aI28531
aI28541
aI28551
aI28561
aI28571
aI28581
aI28591
aI28601
aI28611
aI28621
aI28631
aI28641
aI28651
aI28661
aI28671
aI28681
aI28691
aI28701
aI28711
aI28721
aI28731
aI28741
aI28751
aI28761
aI28771
aI28781
aI28791
aI28801
aI28811
aI28821
aI28831
aI28841
aI28851
aI28861
aI28871
aI28881
aI28891
aI28901
aI28911
aI28921
aI28931
aI28941
aI28951
aI28961
aI28971
aI28981
aI28991
aI29001
aI29011
aI29021
aI29031
aI29041
aI29051
aI29061
aI29071
aI29081
aI29091
aI29101
aI29111
aI29121
aI29131
aI29141
aI29151
aI29161
aI29171
aI29181
aI29191
aI29201
aI29211
aI29221
aI29231
aI29241
aI29251
aI29261
aI29271
aI29281
aI29291
aI29301
aI29311
aI29321
aI29331
aI29341
aI29351
aI29361
aI29371
aI29381
aI29391
aI29401
aI29411
aI29421
aI29431
aI29441
aI29451
aI29461
aI29471
aI29481
aI29491
aI29501
aI29511
aI29521
aI29531
aI29541
aI29551
aI29561
aI29571
aI29581
aI29591
aI29601
aI29611
aI29621
aI29631
aI29641
aI29651
aI29661
aI29671
aI29681
aI29691
aI29701
aI29711
aI29721
aI29731
aI29741
aI29751
aI29761
aI29771
aI29781
aI29791
aI29801
aI29811
aI29821
aI29831
aI29841
aI29851
aI29861
aI29871
aI29881
aI29891
aI29901
aI29911
aI29921
aI29931
aI29941
aI29951
aI29961
aI29971
aI29981
aI29991
aI30001
aI30011
aI30021
aI30031
aI30041
aI30051
aI30061
aI30071
aI30081
aI30091
aI30101
aI30111
aI30121
aI30131
aI30141
aI30151
aI30161
aI30171
aI30181
aI30191
aI30201
aI30211
aI30221
aI30231
aI30241
aI30251
aI30261
aI30271
aI30281
aI30291
aI30301
aI30311
aI30321
aI30331
aI30341
aI30351
aI30361
aI30371
aI30381
aI30391
aI30401
aI30411
aI30421
aI30431
aI30441
aI30451
aI30461
aI30471
aI30481
aI30491
aI30501
aI30511
aI30521
aI30531
aI30541
aI30551
aI30561
aI30571
aI30581
aI30591
aI30601
aI30611
aI30621
aI30631
aI30641
aI30651
aI30661
aI30671
aI30681
aI30691
aI30701
aI30711
aI30721
aI30731
aI30741
aI30751
aI30761
aI30771
aI30781
aI30791
aI30801
aI30811
aI30821
aI30831
aI30841
aI30851
aI30861
aI30871
aI30881
aI30891
aI30901
aI30911
aI30921
aI30931
aI30941
aI30951
aI30961
aI30971
aI30981
aI30991
aI31001
aI31011
aI31021
aI31031
aI31041
aI31051
aI31061
aI31071
aI31081
aI31091
aI31101
aI31111
aI31121
aI31131
aI31141
aI31151
aI31161
aI31171
aI31181
aI31191
aI31201
aI31211
aI31221
aI31231
aI31241
aI31251
aI31261
aI31271
aI31281
aI31291
aI31301
aI31311
aI31321
aI31331
aI31341
aI31351
aI31361
aI31371
aI31381
aI31391
aI31401
aI31411
aI31421
aI31431
aI31441
aI31451
aI31461
aI31471
aI31481
aI31491
aI31501
aI31511
aI31521
aI31531
aI31541
aI31551
aI31561
aI31571
aI31581
aI31591
aI31601
aI31611
aI31621
aI31631
aI31641
aI31651
aI31661
aI31671
aI31681
aI31691
aI31701
aI31711
aI31721
aI31731
aI31741
aI31751
aI31761
aI31771
aI31781
aI31791
aI31801
aI31811
aI31821
aI31831
aI31841
aI31851
aI31861
aI31871
aI31881
aI31891
aI31901
aI31911
aI31921
aI31931
aI31941
aI31951
aI31961
aI31971
aI31981
aI31991
aI32001
aI32011
aI32021
aI32031
aI32041
aI32051
aI32061
aI32071
aI32081
aI32091
aI32101
aI32111
aI32121
aI32131
aI32141
aI32151
aI32161
aI32171
aI32181
aI32191
aI32201
aI32211
aI32221
aI32231
aI32241
aI32251
aI32261
aI32271
aI32281
aI32291
aI32301
aI32311
aI32321
aI32331
aI32341
aI32351
aI32361
aI32371
aI32381
aI32391
aI32401
aI32411
aI32421
aI32431
aI32441
aI32451
aI32461
aI32471
aI32481
aI32491
aI32501
aI32511
aI32521
aI32531
aI32541
aI32551
aI32561
aI32571
aI32581
aI32591
aI32601
aI32611
aI32621
aI32631
aI32641
aI32651
aI32661
aI32671
aI32681
aI32691
aI32701
aI32711
aI32721
aI32731
aI32741
aI32751
aI32761
aI32771
aI32781
aI32791
aI32801
aI32811
aI32821
aI32831
aI32841
aI32851
aI32861
aI32871
aI32881
aI32891
aI32901
aI32911
aI32921
aI32931
aI32941
aI32951
aI32961
aI32971
aI32981
aI32991
aI33001
aI33011
aI33021
aI33031
aI33041
aI33051
aI33061
aI33071
aI33081
aI33091
aI33101
aI33111
aI33121
aI33131
aI33141
aI33151
aI33161
aI33171
aI33181
aI33191
aI33201
aI33211
aI33221
aI33231
aI33241
aI33251
aI33261
aI33271
aI33281
aI33291
aI33301
aI33311
aI33321
aI33331
aI33341
aI33351
aI33361
aI33371
aI33381
aI33391
aI33401
aI33411
aI33421
aI33431
aI33441
aI33451
aI33461
aI33471
aI33481
aI33491
aI33501
aI33511
aI33521
aI33531
aI33541
aI33551
aI33561
aI33571
aI33581
aI33591
aI33601
aI33611
aI33621
aI33631
aI33641
aI33651
aI33661
aI33671
aI33681
aI33691
aI33701
aI33711
aI33721
aI33731
aI33741
aI33751
aI33761
aI33771
aI33781
aI33791
aI33801
aI33811
aI33821
aI33831
aI33841
aI33851
aI33861
aI33871
aI33881
aI33891
aI33901
aI33911
aI33921
aI33931
aI33941
aI33951
aI33961
aI33971
aI33981
aI33991
aI34001
aI34011
aI34021
aI34031
aI34041
aI34051
aI34061
aI34071
aI34081
aI34091
aI34101
aI34111
aI34121
aI34131
aI34141
aI34151
aI34161
aI34171
aI34181
aI34191
aI34201
aI34211
aI34221
aI34231
aI34241
aI34251
aI34261
aI34271
aI34281
aI34291
aI34301
aI34311
aI34321
aI34331
aI34341
aI34351
aI34361
aI34371
aI34381
aI34391
aI34401
aI34411
aI34421
aI34431
aI34441
aI34451
aI34461
aI34471
aI34481
aI34491
aI34501
aI34511
aI34521
aI34531
aI34541
aI34551
aI34561
aI34571
aI34581
aI34591
aI34601
aI34611
aI34621
aI34631
aI34641
aI34651
aI34661
aI34671
aI34681
aI34691
aI34701
aI34711
aI34721
aI34731
aI34741
aI34751
aI34761
aI34771
aI34781
aI34791
aI34801
aI34811
aI34821
aI34831
aI34841
aI34851
aI34861
aI34871
aI34881
aI34891
aI34901
aI34911
aI34921
aI34931
aI34941
aI34951
aI34961
aI34971
aI34981
aI34991
aI35001
aI35011
aI35021
aI35031
aI35041
aI35051
aI35061
aI35071
aI35081
aI35091
aI35101
aI35111
aI35121
aI35131
aI35141
aI35151
aI35161
aI35171
aI35181
aI35191
aI35201
aI35211
aI35221
aI35231
aI35241
aI35251
aI35261
aI35271
aI35281
aI35291
aI35301
aI35311
aI35321
aI35331
aI35341
aI35351
aI35361
aI35371
aI35381
aI35391
aI35401
aI35411
aI35421
aI35431
aI35441
aI35451
aI35461
aI35471
aI35481
aI35491
aI35501
aI35511
aI35521
aI35531
aI35541
aI35551
aI35561
aI35571
aI35581
aI35591
aI35601
aI35611
aI35621
aI35631
aI35641
aI35651
aI35661
aI35671
aI35681
aI35691
aI35701
aI35711
aI35721
aI35731
aI35741
aI35751
aI35761
aI35771
aI35781
aI35791
aI35801
aI35811
aI35821
aI35831
aI35841
aI35851
aI35861
aI35871
aI35881
aI35891
aI35901
aI35911
aI35921
aI35931
aI35941
aI35951
aI35961
aI35971
aI35981
aI35991
aI36001
aI36011
aI36021
aI36031
aI36041
aI36051
aI36061
aI36071
aI36081
aI36091
aI36101
aI36111
aI36121
aI36131
aI36141
aI36151
aI36161
aI36171
aI36181
aI36191
aI36201
aI36211
aI36221
aI36231
aI36241
aI36251
aI36261
aI36271
aI36281
aI36291
aI36301
aI36311
aI36321
aI36331
aI36341
aI36351
aI36361
aI36371
aI36381
aI36391
aI36401
aI36411
aI36421
aI36431
aI36441
aI36451
aI36461
aI36471
aI36481
aI36491
aI36501
aI36511
aI36521
aI36531
aI36541
aI36551
aI36561
aI36571
aI36581
aI36591
aI36601
aI36611
aI36621
aI36631
aI36641
aI36651
aI36661
aI36671
aI36681
aI36691
aI36701
aI36711
aI36721
aI36731
aI36741
aI36751
aI36761
aI36771
aI36781
aI36791
aI36801
aI36811
aI36821
aI36831
aI36841
aI36851
aI36861
aI36871
aI36881
aI36891
aI36901
aI36911
aI36921
aI36931
aI36941
aI36951
aI36961
aI36971
aI36981
aI36991
aI37001
aI37011
aI37021
aI37031
aI37041
aI37051
aI37061
aI37071
aI37081
aI37091
aI37101
aI37111
aI37121
aI37131
aI37141
aI37151
aI37161
aI37171
aI37181
aI37191
aI37201
aI37211
aI37221
aI37231
aI37241
aI37251
aI37261
aI37271
aI37281
aI37291
aI37301
aI37311
aI37321
aI37331
aI37341
aI37351
aI37361
aI37371
aI37381
aI37391
aI37401
aI37411
aI37421
aI37431
aI37441
aI37451
aI37461
aI37471
aI37481
aI37491
aI37501
aI37511
aI37521
aI37531
aI37541
aI37551
aI37561
aI37571
aI37581
aI37591
aI37601
aI37611
aI37621
aI37631
aI37641
aI37651
aI37661
aI37671
aI37681
aI37691
aI37701
aI37711
aI37721
aI37731
aI37741
aI37751
aI37761
aI37771
aI37781
aI37791
aI37801
aI37811
aI37821
aI37831
aI37841
aI37851
aI37861
aI37871
aI37881
aI37891
aI37901
aI37911
aI37921
aI37931
aI37941
aI37951
aI37961
aI37971
aI37981
aI37991
aI38001
aI38011
aI38021
aI38031
aI38041
aI38051
aI38061
aI38071
aI38081
aI38091
aI38101
aI38111
aI38121
aI38131
aI38141
aI38151
aI38161
aI38171
aI38181
aI38191
aI38201
aI38211
aI38221
aI38231
aI38241
aI38251
aI38261
aI38271
aI38281
aI38291
aI38301
aI38311
aI38321
aI38331
aI38341
aI38351
aI38361
aI38371
aI38381
aI38391
aI38401
aI38411
aI38421
aI38431
aI38441
aI38451
aI38461
aI38471
aI38481
aI38491
aI38501
aI38511
aI38521
aI38531
aI38541
aI38551
aI38561
aI38571
aI38581
aI38591
aI38601
aI38611
aI38621
aI38631
aI38641
aI38651
aI38661
aI38671
aI38681
aI38691
aI38701
aI38711
aI38721
aI38731
aI38741
aI38751
aI38761
aI38771
aI38781
aI38791
aI38801
aI38811
aI38821
aI38831
aI38841
aI38851
aI38861
aI38871
aI38881
aI38891
aI38901
aI38911
aI38921
aI38931
aI38941
aI38951
aI38961
aI38971
aI38981
aI38991
aI39001
aI39011
aI39021
aI39031
aI39041
aI39051
aI39061
aI39071
aI39081
aI39091
asVhyperparams/batch_size
p13
(lp14
F128.0
aF128.0
aF128.0
aF128.0
aF128.0
aF128.0
aF128.0
aF128.0
aF128.0
aF128.0
aF128.0
aF128.0
aF128.0
aF128.0
aF128.0
aF128.0
aF128.0
aF128.0
aF128.0
aF128.0
aF128.0
aF128.0
aF128.0
aF128.0
aF128.0
aF128.0
aF128.0
aF128.0
aF128.0
aF128.0
aF128.0
aF128.0
aF128.0
aF128.0
aF128.0
aF128.0
aF128.0
aF128.0
aF128.0
aF128.0
aF128.0
aF128.0
aF128.0
aF128.0
aF128.0
aF128.0
aF128.0
aF128.0
aF128.0
aF128.0
aF128.0
aF128.0
aF128.0
aF128.0
aF128.0
aF128.0
aF128.0
aF128.0
aF128.0
aF128.0
aF128.0
aF128.0
aF128.0
aF128.0
aF128.0
aF128.0
aF128.0
aF128.0
aF128.0
aF128.0
aF128.0
aF128.0
aF128.0
aF128.0
aF128.0
aF128.0
aF128.0
aF128.0
aF128.0
aF128.0
aF128.0
aF128.0
aF128.0
aF128.0
aF128.0
aF128.0
aF128.0
aF128.0
aF128.0
aF128.0
aF128.0
aF128.0
aF128.0
aF128.0
aF128.0
aF128.0
aF128.0
aF128.0
aF128.0
aF128.0
aF128.0
asS'args'
p15
ccopy_reg
_reconstructor
p16
(cargparse
Namespace
p17
c__builtin__
object
p18
Ntp19
Rp20
(dp21
S'wd'
p22
NsS'data_dir'
p23
S'data'
p24
sS'epsilon'
p25
F1e-08
sS'nologs'
p26
I00
sS'num_epochs'
p27
I100
sS'lr_sched_epochs'
p28
NsS'saveto'
p29
S'res/benchmark_small_final/'
p30
sS'lr_sched_factors'
p31
NsS'train_log_interval'
p32
I10
sS'checkpoint_epochs'
p33
I1
sS'print_train_iter'
p34
I00
sS'lr'
p35
F0.0002511886
sS'beta2'
p36
F0.999
sS'beta1'
p37
F0.9
sS'bs'
p38
I128
sS'pickle'
p39
I01
sS'random_seed'
p40
I46
sS'no_time'
p41
I00
sS'test_problem'
p42
S'cifar10.cifar10_3c3d'
p43
sS'run_name'
p44
S'Adam/'
p45
sbsVhyperparams/beta2
p46
(lp47
F0.9990000128746033
aF0.9990000128746033
aF0.9990000128746033
aF0.9990000128746033
aF0.9990000128746033
aF0.9990000128746033
aF0.9990000128746033
aF0.9990000128746033
aF0.9990000128746033
aF0.9990000128746033
aF0.9990000128746033
aF0.9990000128746033
aF0.9990000128746033
aF0.9990000128746033
aF0.9990000128746033
aF0.9990000128746033
aF0.9990000128746033
aF0.9990000128746033
aF0.9990000128746033
aF0.9990000128746033
aF0.9990000128746033
aF0.9990000128746033
aF0.9990000128746033
aF0.9990000128746033
aF0.9990000128746033
aF0.9990000128746033
aF0.9990000128746033
aF0.9990000128746033
aF0.9990000128746033
aF0.9990000128746033
aF0.9990000128746033
aF0.9990000128746033
aF0.9990000128746033
aF0.9990000128746033
aF0.9990000128746033
aF0.9990000128746033
aF0.9990000128746033
aF0.9990000128746033
aF0.9990000128746033
aF0.9990000128746033
aF0.9990000128746033
aF0.9990000128746033
aF0.9990000128746033
aF0.9990000128746033
aF0.9990000128746033
aF0.9990000128746033
aF0.9990000128746033
aF0.9990000128746033
aF0.9990000128746033
aF0.9990000128746033
aF0.9990000128746033
aF0.9990000128746033
aF0.9990000128746033
aF0.9990000128746033
aF0.9990000128746033
aF0.9990000128746033
aF0.9990000128746033
aF0.9990000128746033
aF0.9990000128746033
aF0.9990000128746033
aF0.9990000128746033
aF0.9990000128746033
aF0.9990000128746033
aF0.9990000128746033
aF0.9990000128746033
aF0.9990000128746033
aF0.9990000128746033
aF0.9990000128746033
aF0.9990000128746033
aF0.9990000128746033
aF0.9990000128746033
aF0.9990000128746033
aF0.9990000128746033
aF0.9990000128746033
aF0.9990000128746033
aF0.9990000128746033
aF0.9990000128746033
aF0.9990000128746033
aF0.9990000128746033
aF0.9990000128746033
aF0.9990000128746033
aF0.9990000128746033
aF0.9990000128746033
aF0.9990000128746033
aF0.9990000128746033
aF0.9990000128746033
aF0.9990000128746033
aF0.9990000128746033
aF0.9990000128746033
aF0.9990000128746033
aF0.9990000128746033
aF0.9990000128746033
aF0.9990000128746033
aF0.9990000128746033
aF0.9990000128746033
aF0.9990000128746033
aF0.9990000128746033
aF0.9990000128746033
aF0.9990000128746033
aF0.9990000128746033
aF0.9990000128746033
asVtraining/training_loss
p48
(lp49
F3.580606460571289
aF3.3402652740478516
aF3.1557693481445312
aF3.075364112854004
aF3.0517969131469727
aF2.786440372467041
aF2.917166233062744
aF2.8146567344665527
aF2.657864809036255
aF2.747690200805664
aF2.657087802886963
aF2.5092155933380127
aF2.5611789226531982
aF2.5232200622558594
aF2.624873399734497
aF2.469296932220459
aF2.2872018814086914
aF2.358701705932617
aF2.4040188789367676
aF2.2251663208007812
aF2.1531198024749756
aF2.3885254859924316
aF2.2973949909210205
aF2.1608176231384277
aF2.3855128288269043
aF2.2400503158569336
aF2.1150124073028564
aF2.1482181549072266
aF2.0374765396118164
aF2.1438796520233154
aF2.131448268890381
aF2.0588927268981934
aF1.9617581367492676
aF2.2268855571746826
aF1.976001501083374
aF1.967315912246704
aF2.0501513481140137
aF1.9643890857696533
aF2.155258893966675
aF2.0810813903808594
aF2.1151950359344482
aF1.9915629625320435
aF1.977843999862671
aF2.004840135574341
aF1.9956077337265015
aF2.1321942806243896
aF2.132903575897217
aF1.9938788414001465
aF1.997124195098877
aF1.9945982694625854
aF1.9193141460418701
aF1.9956073760986328
aF1.8050328493118286
aF1.772287130355835
aF1.875439167022705
aF1.8055734634399414
aF1.7772784233093262
aF1.7406890392303467
aF1.9136148691177368
aF1.8158257007598877
aF1.7311056852340698
aF1.7334195375442505
aF1.7778639793395996
aF1.7686467170715332
aF1.6947317123413086
aF1.8170791864395142
aF1.9069998264312744
aF1.7670009136199951
aF1.6609909534454346
aF1.746133804321289
aF1.7715764045715332
aF1.8502354621887207
aF1.6919224262237549
aF1.7087117433547974
aF1.7848795652389526
aF1.7904963493347168
aF1.8645646572113037
aF1.819054365158081
aF1.7379214763641357
aF1.6171956062316895
aF1.681913137435913
aF1.7673602104187012
aF1.6310501098632812
aF1.6495856046676636
aF1.5974303483963013
aF1.422325849533081
aF1.7671492099761963
aF1.6859451532363892
aF1.778613805770874
aF1.6738694906234741
aF1.5033278465270996
aF1.7405588626861572
aF1.7001904249191284
aF1.5635786056518555
aF1.5920354127883911
aF1.664878249168396
aF1.6472108364105225
aF1.5725370645523071
aF1.588219404220581
aF1.634702205657959
aF1.5796008110046387
aF1.5184807777404785
aF1.6483943462371826
aF1.5205879211425781
aF1.4407861232757568
aF1.720278263092041
aF1.5510512590408325
aF1.6559978723526
aF1.5643398761749268
aF1.5978600978851318
aF1.5788604021072388
aF1.4555702209472656
aF1.4600772857666016
aF1.4834166765213013
aF1.496337890625
aF1.3814514875411987
aF1.4703562259674072
aF1.5726840496063232
aF1.6298446655273438
aF1.572859764099121
aF1.5715250968933105
aF1.4359447956085205
aF1.4895453453063965
aF1.4429190158843994
aF1.428581714630127
aF1.5309932231903076
aF1.5305595397949219
aF1.3734338283538818
aF1.420060157775879
aF1.4640517234802246
aF1.6096535921096802
aF1.5615053176879883
aF1.4463685750961304
aF1.448225736618042
aF1.5470659732818604
aF1.388768196105957
aF1.4041979312896729
aF1.3573747873306274
aF1.377607822418213
aF1.4332817792892456
aF1.6103214025497437
aF1.4131067991256714
aF1.2795039415359497
aF1.4930574893951416
aF1.3830595016479492
aF1.5818276405334473
aF1.3498769998550415
aF1.406551480293274
aF1.3200881481170654
aF1.3207650184631348
aF1.2864230871200562
aF1.4572844505310059
aF1.3036257028579712
aF1.2772833108901978
aF1.5014710426330566
aF1.4561455249786377
aF1.3570582866668701
aF1.348716139793396
aF1.4126319885253906
aF1.4777414798736572
aF1.4552079439163208
aF1.2728157043457031
aF1.2650840282440186
aF1.4151537418365479
aF1.4511765241622925
aF1.4650450944900513
aF1.2304147481918335
aF1.4003150463104248
aF1.4347151517868042
aF1.5053446292877197
aF1.5074446201324463
aF1.3075051307678223
aF1.4072449207305908
aF1.3133057355880737
aF1.186471939086914
aF1.2634207010269165
aF1.368456244468689
aF1.317262053489685
aF1.304520606994629
aF1.5091924667358398
aF1.1274199485778809
aF1.4166483879089355
aF1.414259672164917
aF1.301774024963379
aF1.3584486246109009
aF1.3334306478500366
aF1.3231744766235352
aF1.3168175220489502
aF1.2991169691085815
aF1.1797764301300049
aF1.3248789310455322
aF1.4105409383773804
aF1.3943496942520142
aF1.359912633895874
aF1.3136999607086182
aF1.1878230571746826
aF1.2219107151031494
aF1.2421261072158813
aF1.271657943725586
aF1.3626312017440796
aF1.3497436046600342
aF1.268689751625061
aF1.2190492153167725
aF1.3266887664794922
aF1.1330921649932861
aF1.3487426042556763
aF1.2070331573486328
aF1.369261622428894
aF1.074081301689148
aF1.3281488418579102
aF1.396425485610962
aF1.4464430809020996
aF1.2547829151153564
aF1.2439936399459839
aF1.2494763135910034
aF1.1782288551330566
aF1.4405597448349
aF1.292283535003662
aF1.2706338167190552
aF1.2096831798553467
aF1.2987323999404907
aF1.3546382188796997
aF1.1621888875961304
aF1.0907268524169922
aF1.2387068271636963
aF1.2334085702896118
aF1.342345952987671
aF1.3736956119537354
aF1.28261137008667
aF1.2779518365859985
aF1.0603816509246826
aF1.3703246116638184
aF1.1649022102355957
aF1.3144420385360718
aF1.1173584461212158
aF1.2431442737579346
aF1.1924738883972168
aF1.0963056087493896
aF1.1385687589645386
aF1.3274767398834229
aF1.238093614578247
aF1.2384755611419678
aF1.1737185716629028
aF1.1643065214157104
aF1.261226773262024
aF1.3372294902801514
aF1.2131091356277466
aF1.245818018913269
aF1.1965913772583008
aF1.3023180961608887
aF1.1979851722717285
aF1.289584994316101
aF1.2530591487884521
aF1.187305212020874
aF1.1834437847137451
aF1.2009743452072144
aF1.1443274021148682
aF1.1044576168060303
aF1.388671636581421
aF1.058469533920288
aF1.2233201265335083
aF1.2763632535934448
aF1.2844538688659668
aF1.1569125652313232
aF1.0549784898757935
aF1.0631487369537354
aF1.29638671875
aF1.2134445905685425
aF1.146598219871521
aF1.259277105331421
aF1.164313554763794
aF1.1650328636169434
aF1.3360693454742432
aF1.156611680984497
aF1.241424798965454
aF1.2190139293670654
aF1.1716651916503906
aF1.1440067291259766
aF1.2744152545928955
aF1.1586246490478516
aF1.209925651550293
aF1.097243309020996
aF1.0609967708587646
aF1.2382712364196777
aF1.1634539365768433
aF0.9891644716262817
aF1.0736056566238403
aF1.0745420455932617
aF1.142191767692566
aF1.0317684412002563
aF1.1029661893844604
aF1.1855065822601318
aF1.1317740678787231
aF1.1609251499176025
aF1.1106945276260376
aF1.2004700899124146
aF1.2556138038635254
aF1.0760276317596436
aF1.1897759437561035
aF1.1054844856262207
aF1.292921781539917
aF1.207582950592041
aF1.2648299932479858
aF1.1034440994262695
aF1.0546954870224
aF1.1080057621002197
aF1.1746591329574585
aF1.0034626722335815
aF1.2314872741699219
aF1.1460384130477905
aF1.0951637029647827
aF1.2009437084197998
aF1.0365750789642334
aF1.137046456336975
aF1.0522737503051758
aF1.0551871061325073
aF1.0159881114959717
aF0.954082727432251
aF1.1437833309173584
aF1.1420769691467285
aF1.0119459629058838
aF1.1752833127975464
aF1.0962620973587036
aF1.1512153148651123
aF1.1343700885772705
aF1.095309853553772
aF1.0866419076919556
aF1.0739822387695312
aF1.2295585870742798
aF1.0228244066238403
aF1.132060170173645
aF1.0067578554153442
aF1.1563925743103027
aF1.1672425270080566
aF1.0309879779815674
aF1.0869441032409668
aF1.14295494556427
aF1.1240495443344116
aF0.9833272695541382
aF1.0259058475494385
aF1.0449583530426025
aF1.0192453861236572
aF1.1014771461486816
aF1.0330753326416016
aF1.0099760293960571
aF1.2266433238983154
aF1.1438781023025513
aF1.1068381071090698
aF1.2163912057876587
aF1.1332272291183472
aF1.0238314867019653
aF1.1743096113204956
aF1.086786150932312
aF1.128244400024414
aF1.097547173500061
aF1.114912986755371
aF0.897705078125
aF1.0988123416900635
aF1.0320513248443604
aF1.0579016208648682
aF1.0844099521636963
aF1.0520596504211426
aF1.0966885089874268
aF1.1439121961593628
aF1.027279257774353
aF1.0562841892242432
aF0.9513604044914246
aF0.951744794845581
aF1.1087510585784912
aF1.0495116710662842
aF0.9692422151565552
aF1.0043922662734985
aF1.0707424879074097
aF1.1488415002822876
aF1.186523675918579
aF1.024797797203064
aF1.012115716934204
aF1.0827915668487549
aF1.0693552494049072
aF0.9837177991867065
aF1.156707525253296
aF1.0399810075759888
aF1.2016370296478271
aF1.164717197418213
aF0.9738023281097412
aF0.8434062004089355
aF1.0883004665374756
aF1.155768632888794
aF0.8916338682174683
aF0.9332420825958252
aF0.9507583379745483
aF0.991176962852478
aF1.119598150253296
aF1.0160114765167236
aF1.0666452646255493
aF1.119275689125061
aF0.8251535892486572
aF1.0000083446502686
aF1.0802321434020996
aF1.0739529132843018
aF1.0134220123291016
aF1.1979724168777466
aF1.1252306699752808
aF0.8952687978744507
aF1.261192798614502
aF1.0701634883880615
aF1.0007426738739014
aF0.9647272825241089
aF1.0050618648529053
aF1.0783535242080688
aF0.9970740079879761
aF0.9029091000556946
aF1.0411300659179688
aF0.9591284990310669
aF1.0628063678741455
aF0.9852861762046814
aF1.0596504211425781
aF1.1000933647155762
aF1.1019654273986816
aF1.113603115081787
aF0.9368084669113159
aF0.9717514514923096
aF1.1546688079833984
aF1.0743952989578247
aF0.958185076713562
aF1.18709397315979
aF0.9444162845611572
aF1.0671409368515015
aF1.069141149520874
aF0.8653552532196045
aF0.8954867124557495
aF0.7854942083358765
aF1.0710127353668213
aF0.9277603626251221
aF1.0449728965759277
aF0.9847793579101562
aF1.0111169815063477
aF1.0607690811157227
aF0.9654837846755981
aF1.04973304271698
aF0.92886883020401
aF1.146457314491272
aF1.0608341693878174
aF1.0566695928573608
aF0.8624216318130493
aF1.0415574312210083
aF0.9403951168060303
aF0.8966413736343384
aF0.9374134540557861
aF1.024455189704895
aF0.9194173812866211
aF0.8025243878364563
aF0.9984476566314697
aF0.9241927862167358
aF1.0128659009933472
aF1.1016162633895874
aF0.9787482619285583
aF1.0950305461883545
aF0.893174409866333
aF0.8809743523597717
aF0.9722191095352173
aF0.9786038398742676
aF1.04948890209198
aF0.8884623050689697
aF1.0027861595153809
aF1.0202505588531494
aF1.057352066040039
aF1.008561611175537
aF0.9733835458755493
aF0.8587511777877808
aF1.0317022800445557
aF1.0732693672180176
aF0.8998855352401733
aF0.8986424207687378
aF1.0641919374465942
aF0.9624559879302979
aF0.925832986831665
aF0.969856858253479
aF0.9980025291442871
aF1.1179982423782349
aF0.9243204593658447
aF0.9207613468170166
aF0.9174111485481262
aF1.0123242139816284
aF0.7960740327835083
aF1.0407180786132812
aF1.1291381120681763
aF1.0000083446502686
aF1.0397694110870361
aF0.8558861017227173
aF0.8705856204032898
aF1.1167793273925781
aF0.8661524653434753
aF1.0613420009613037
aF1.0155065059661865
aF0.7861632108688354
aF0.9315976500511169
aF0.9553576111793518
aF1.1005849838256836
aF0.8734409213066101
aF1.0311473608016968
aF0.8131730556488037
aF0.9631222486495972
aF0.9063551425933838
aF0.8672033548355103
aF0.9512799978256226
aF0.909920334815979
aF1.0293378829956055
aF0.9113974571228027
aF0.8549090027809143
aF0.9590715169906616
aF0.8913635015487671
aF1.0638532638549805
aF1.0341250896453857
aF1.036713719367981
aF0.8593688011169434
aF0.9781786203384399
aF0.9553239345550537
aF1.1385185718536377
aF0.9863640069961548
aF1.0015065670013428
aF1.0583033561706543
aF1.088562250137329
aF0.7154556512832642
aF0.8209676146507263
aF0.984941303730011
aF0.90598464012146
aF0.9444136619567871
aF0.7632539868354797
aF0.8948334455490112
aF0.8016225099563599
aF0.881893515586853
aF0.8045117259025574
aF0.9864472150802612
aF1.028942584991455
aF1.1525450944900513
aF1.0717144012451172
aF0.9059298038482666
aF1.0384020805358887
aF0.9374562501907349
aF0.9426947236061096
aF0.9060887694358826
aF0.9380139112472534
aF0.9442000389099121
aF1.0135682821273804
aF1.044043779373169
aF1.0159714221954346
aF1.0187716484069824
aF1.1099175214767456
aF0.9015473127365112
aF1.016048550605774
aF0.9874663352966309
aF0.8270795345306396
aF1.0316636562347412
aF0.8948824405670166
aF0.9333619475364685
aF0.8974285125732422
aF0.7998568415641785
aF1.034708023071289
aF0.9106638431549072
aF0.9583197832107544
aF0.9502034187316895
aF0.9488325715065002
aF0.9143493175506592
aF0.9212340116500854
aF0.9419376254081726
aF0.8856594562530518
aF0.9885125160217285
aF1.0968183279037476
aF0.8316036462783813
aF1.052231788635254
aF0.9227128028869629
aF0.9133812785148621
aF0.8955162763595581
aF0.8687194585800171
aF0.9214900732040405
aF0.9555565118789673
aF0.8501592874526978
aF0.9189771413803101
aF0.9097265005111694
aF0.9205582141876221
aF1.0874571800231934
aF0.8131948709487915
aF0.8449527025222778
aF0.8790892362594604
aF0.7870731353759766
aF0.8783087134361267
aF0.7545191049575806
aF0.7770806550979614
aF0.9106312990188599
aF0.8998447060585022
aF1.0309042930603027
aF0.8769073486328125
aF0.892466127872467
aF1.006980538368225
aF0.6652747392654419
aF0.722161591053009
aF0.9404071569442749
aF0.8858221769332886
aF0.8570380210876465
aF0.8702249526977539
aF0.8923816680908203
aF0.9546463489532471
aF0.8535134196281433
aF0.8681290745735168
aF0.7550377249717712
aF0.7517309188842773
aF0.8243967294692993
aF0.7070112228393555
aF0.7997578978538513
aF0.7591325044631958
aF0.760709285736084
aF0.8536236882209778
aF0.8629065155982971
aF0.8700088262557983
aF0.8912028074264526
aF0.822517991065979
aF0.7973333597183228
aF0.882909893989563
aF0.8861379027366638
aF1.0194462537765503
aF0.8284080028533936
aF0.8531861305236816
aF0.7924907207489014
aF0.915162205696106
aF0.8949795961380005
aF0.7847710847854614
aF0.8548725843429565
aF0.9872456192970276
aF0.9532679319381714
aF0.9392105340957642
aF0.8551338911056519
aF0.7948892712593079
aF0.8606036305427551
aF0.878205418586731
aF0.8373645544052124
aF0.9295876622200012
aF0.7544047832489014
aF0.89719158411026
aF0.8109734058380127
aF0.8549462556838989
aF0.8520951867103577
aF0.7516903877258301
aF0.8851330280303955
aF0.8436359763145447
aF0.8770929574966431
aF0.737785816192627
aF0.7693406343460083
aF0.8830562233924866
aF1.039686679840088
aF1.0418767929077148
aF0.9840956926345825
aF0.8305067420005798
aF0.8571696281433105
aF0.8811898231506348
aF0.831079363822937
aF0.8144717216491699
aF0.7661381959915161
aF0.9922229051589966
aF0.786921501159668
aF0.887377917766571
aF0.7964283227920532
aF0.9225043058395386
aF0.9006866216659546
aF0.7520104646682739
aF0.8024253249168396
aF0.8708897829055786
aF0.8766955137252808
aF0.955767035484314
aF0.8596577048301697
aF0.9101386070251465
aF0.9059427976608276
aF0.7670607566833496
aF0.8170056343078613
aF0.8584964275360107
aF0.8333368301391602
aF0.938460111618042
aF0.9131250381469727
aF0.9673413038253784
aF1.0242846012115479
aF0.7570409774780273
aF0.8518030643463135
aF0.9889266490936279
aF0.6427234411239624
aF0.8484979867935181
aF0.9052139520645142
aF0.9476977586746216
aF0.8387408256530762
aF0.758919894695282
aF0.8814556002616882
aF0.9244381189346313
aF0.8851877450942993
aF0.8900496959686279
aF0.6477311849594116
aF0.8847334384918213
aF0.8013433218002319
aF0.9428390264511108
aF0.9136795401573181
aF0.852509617805481
aF0.7458049058914185
aF0.8506327867507935
aF0.7315076589584351
aF0.8253693580627441
aF0.7404307126998901
aF0.8487060070037842
aF0.8526389002799988
aF0.8009397983551025
aF0.8983713388442993
aF0.8117105960845947
aF0.8999291658401489
aF0.7455245852470398
aF0.8742008209228516
aF0.6943464279174805
aF0.8969659805297852
aF0.9264792203903198
aF0.9332501888275146
aF0.9216343760490417
aF0.7770984172821045
aF0.7485218644142151
aF0.9290047883987427
aF0.9075204133987427
aF0.7587043642997742
aF0.7287544012069702
aF0.9125977754592896
aF0.941336452960968
aF0.8692486882209778
aF0.8438723087310791
aF0.8311589956283569
aF0.866050124168396
aF0.992414116859436
aF1.1221922636032104
aF0.882819414138794
aF0.8239018321037292
aF0.8959054946899414
aF0.9900997877120972
aF0.9906167387962341
aF0.775083601474762
aF0.8009858131408691
aF0.7310762405395508
aF0.7603679895401001
aF0.7990459203720093
aF0.9529930353164673
aF0.9422786235809326
aF0.9023076295852661
aF0.9306607246398926
aF0.8513838052749634
aF1.0420217514038086
aF0.8111026287078857
aF0.8387863636016846
aF0.721759021282196
aF0.65498948097229
aF0.9095150232315063
aF0.7921192049980164
aF0.842609167098999
aF0.9120208024978638
aF0.8310940265655518
aF0.8927280902862549
aF0.8143237829208374
aF0.8071680068969727
aF0.9002178311347961
aF0.8691738843917847
aF0.7768305540084839
aF0.7687345743179321
aF0.8454330563545227
aF0.8034950494766235
aF0.7715202569961548
aF0.8650656938552856
aF0.8714370727539062
aF0.6704368591308594
aF0.8106098175048828
aF0.8302363157272339
aF0.9418790340423584
aF0.8006352186203003
aF0.9068552851676941
aF0.8928135633468628
aF0.9536850452423096
aF0.7533994317054749
aF0.7959744930267334
aF0.739614725112915
aF0.7923176884651184
aF0.9501543045043945
aF0.8636451959609985
aF0.9011974334716797
aF0.9246598482131958
aF0.7356986999511719
aF0.9344029426574707
aF0.7581796646118164
aF0.708575963973999
aF0.7064177989959717
aF0.8187717199325562
aF0.8421787023544312
aF0.8752123117446899
aF0.9051895141601562
aF0.7118724584579468
aF0.8245698809623718
aF0.6721729040145874
aF0.8343560695648193
aF1.0338940620422363
aF0.8651109933853149
aF0.7782782316207886
aF0.7072454690933228
aF0.696861982345581
aF0.826001763343811
aF0.8364295959472656
aF0.7193523645401001
aF0.8633459210395813
aF0.6961244344711304
aF0.8733031749725342
aF0.759540319442749
aF0.6703299283981323
aF0.7711788415908813
aF0.95423424243927
aF0.8647410869598389
aF0.7549864053726196
aF0.8556801080703735
aF0.804760217666626
aF0.8861981630325317
aF0.9020161628723145
aF0.9003032445907593
aF0.5875531435012817
aF0.7797482013702393
aF0.8547018766403198
aF0.8548116087913513
aF0.8529235124588013
aF0.9663183689117432
aF0.8658864498138428
aF0.6449577808380127
aF0.7068202495574951
aF0.7115864753723145
aF0.8044255971908569
aF0.8252478241920471
aF0.8216187357902527
aF0.8829121589660645
aF0.9460592269897461
aF0.9360414147377014
aF0.7278228998184204
aF0.7719430923461914
aF0.9423701167106628
aF0.7971683740615845
aF0.7823358774185181
aF0.9505591988563538
aF0.8623555302619934
aF0.7103543281555176
aF0.6951043605804443
aF0.7721111178398132
aF0.8215311765670776
aF0.8246346116065979
aF0.8578252196311951
aF0.765721321105957
aF0.9096945524215698
aF0.8198771476745605
aF0.8016607165336609
aF0.9489373564720154
aF0.8915618658065796
aF0.9329731464385986
aF0.8584027290344238
aF0.792556643486023
aF0.7804474234580994
aF0.7743858695030212
aF0.8666754364967346
aF0.8992664217948914
aF0.8038162589073181
aF0.8600925207138062
aF0.6968597173690796
aF0.8207159638404846
aF0.9403082728385925
aF0.6853518486022949
aF0.779798686504364
aF0.7965588569641113
aF0.7773377895355225
aF0.8233217000961304
aF0.7191756963729858
aF0.7578741312026978
aF0.7619186639785767
aF0.8643183708190918
aF0.7180233001708984
aF0.6979325413703918
aF1.0206096172332764
aF0.8065435290336609
aF0.7992134094238281
aF0.8048606514930725
aF0.9019730091094971
aF1.115747332572937
aF0.7290025353431702
aF0.8452730774879456
aF0.9508469104766846
aF0.7938550710678101
aF0.8682869076728821
aF0.6941666603088379
aF0.8281632661819458
aF0.9223955273628235
aF0.8157927989959717
aF0.8217023015022278
aF0.934302031993866
aF0.8101482391357422
aF0.5988215208053589
aF0.7177602648735046
aF0.6480662822723389
aF0.9446375966072083
aF0.8776053190231323
aF0.684666633605957
aF0.7667077779769897
aF0.7628015279769897
aF0.772267758846283
aF0.8505327701568604
aF0.7276266813278198
aF0.629657506942749
aF0.7384469509124756
aF0.7539294958114624
aF0.9386992454528809
aF0.8861470222473145
aF0.7782403230667114
aF0.9370437860488892
aF0.9645038843154907
aF0.7088932991027832
aF0.7049458622932434
aF0.8552273511886597
aF0.8261914253234863
aF0.7066869139671326
aF0.8978589177131653
aF0.6594144701957703
aF0.7546119689941406
aF0.6492474675178528
aF0.7933461666107178
aF0.7886038422584534
aF0.9615685939788818
aF0.7961726784706116
aF0.7687999606132507
aF0.7212029099464417
aF0.7360854744911194
aF0.6673181056976318
aF0.7448854446411133
aF0.8494089841842651
aF0.7868414521217346
aF0.7943095564842224
aF0.6333459615707397
aF0.8125673532485962
aF0.6938066482543945
aF0.8462838530540466
aF0.8321053385734558
aF0.7119748592376709
aF0.7597904205322266
aF0.736359179019928
aF0.7484956979751587
aF0.7020453214645386
aF0.6082737445831299
aF0.8180312514305115
aF0.9337148666381836
aF0.7631422877311707
aF1.0136103630065918
aF0.8404214382171631
aF0.7848547697067261
aF0.7811627388000488
aF0.8811802864074707
aF0.7966030836105347
aF0.7411473989486694
aF0.6657345294952393
aF0.6751512289047241
aF0.9235208034515381
aF0.8964675068855286
aF0.6377063989639282
aF0.751105785369873
aF0.65776127576828
aF0.894603967666626
aF0.6834056377410889
aF0.7909031510353088
aF0.8987752795219421
aF0.8047606348991394
aF0.9101569652557373
aF0.850616991519928
aF0.8347716927528381
aF0.7274598479270935
aF0.7712933421134949
aF0.7183622121810913
aF0.7133397459983826
aF0.7750645875930786
aF0.8550544381141663
aF0.8153344392776489
aF0.714209794998169
aF0.7643177509307861
aF0.7034779787063599
aF0.8464335203170776
aF0.9310059547424316
aF0.70965576171875
aF0.7475414276123047
aF0.8504880666732788
aF0.6975967884063721
aF0.7900517582893372
aF0.7433977127075195
aF0.6576682329177856
aF0.757437527179718
aF0.8382651209831238
aF0.8247559666633606
aF0.9303996562957764
aF0.7681025266647339
aF0.7400006055831909
aF0.7307873964309692
aF0.7629970908164978
aF0.6561486721038818
aF0.7932109236717224
aF0.7091346979141235
aF0.7447907328605652
aF0.7542770504951477
aF0.738178551197052
aF0.6644232869148254
aF0.6897152662277222
aF0.6205215454101562
aF0.7418829798698425
aF0.6235101222991943
aF0.680557370185852
aF0.9034764766693115
aF0.9316502809524536
aF0.7791253328323364
aF0.8492764234542847
aF0.7796875238418579
aF0.7893904447555542
aF0.705080509185791
aF0.6563287377357483
aF0.8210500478744507
aF0.7598026394844055
aF0.758374810218811
aF0.7680445909500122
aF0.8078051805496216
aF0.562965989112854
aF0.7113000154495239
aF0.7002071142196655
aF0.8088797926902771
aF0.7024783492088318
aF0.6613264679908752
aF0.8834657073020935
aF0.7632462978363037
aF0.9264335036277771
aF0.7330876588821411
aF0.7768967151641846
aF0.8113993406295776
aF0.7289712429046631
aF0.7043013572692871
aF0.6441724300384521
aF0.71275794506073
aF0.6992361545562744
aF0.8969238996505737
aF0.6434991359710693
aF0.8081382513046265
aF0.797544538974762
aF0.7753545045852661
aF0.8154414296150208
aF0.7913988828659058
aF0.8085556626319885
aF0.6861844658851624
aF0.6746224164962769
aF0.7787505984306335
aF0.7456112504005432
aF0.7515772581100464
aF0.8176172971725464
aF0.8600326776504517
aF0.8648792505264282
aF0.8485461473464966
aF0.7301204800605774
aF0.7718973159790039
aF0.8497339487075806
aF0.6717115044593811
aF0.6745982766151428
aF0.6765908598899841
aF0.6842896938323975
aF0.682083249092102
aF0.7289149165153503
aF0.7811702489852905
aF0.8163151144981384
aF0.9809656143188477
aF0.669222354888916
aF0.7220124006271362
aF0.7889695167541504
aF0.6854264140129089
aF0.6072059869766235
aF0.8089790344238281
aF0.6745584607124329
aF0.7112506628036499
aF0.745206356048584
aF0.7637197375297546
aF0.8301559686660767
aF0.7796162962913513
aF0.8179481029510498
aF0.6756265163421631
aF0.9798852205276489
aF0.7329536080360413
aF0.7295119762420654
aF0.732607364654541
aF0.8186519145965576
aF0.8403083086013794
aF0.7364920377731323
aF0.749861478805542
aF0.7961822748184204
aF0.8467327952384949
aF0.6705860495567322
aF0.6477710008621216
aF0.6903908848762512
aF0.7209653854370117
aF0.6452258825302124
aF0.8781968355178833
aF0.6942797303199768
aF0.8468275666236877
aF0.6780203580856323
aF0.8070953488349915
aF0.6821575164794922
aF0.6714507341384888
aF0.6922512054443359
aF0.7942408323287964
aF0.8255940675735474
aF0.6918122172355652
aF0.6589534878730774
aF0.6915529370307922
aF0.7538800239562988
aF0.8337537050247192
aF0.6789340376853943
aF0.7557182908058167
aF0.7245379090309143
aF0.7613382339477539
aF0.7545492053031921
aF0.708642840385437
aF0.7266271114349365
aF0.7897971868515015
aF0.7028921246528625
aF0.7417672276496887
aF0.6922763586044312
aF0.7715761661529541
aF0.7589541077613831
aF0.7570623755455017
aF0.7327187657356262
aF0.6603628993034363
aF0.7778617143630981
aF0.6630923748016357
aF0.6910643577575684
aF0.6512172222137451
aF0.7663010358810425
aF0.6813730597496033
aF0.630913496017456
aF0.8760906457901001
aF0.7503002285957336
aF0.8981524705886841
aF0.8043251037597656
aF0.7565120458602905
aF0.6542741060256958
aF0.6428314447402954
aF0.8283963203430176
aF0.7289974689483643
aF0.6032789349555969
aF0.6483729481697083
aF0.7303318381309509
aF0.6208134293556213
aF0.8649585843086243
aF0.8872566223144531
aF0.7182821035385132
aF0.5792661905288696
aF0.6797194480895996
aF0.8021640777587891
aF0.7129019498825073
aF0.7041149139404297
aF0.7733998894691467
aF0.7206969261169434
aF0.7528254389762878
aF0.7045724987983704
aF0.6622667908668518
aF0.7246120572090149
aF0.7383430004119873
aF0.7891812920570374
aF0.6688071489334106
aF0.8179075717926025
aF0.7288223505020142
aF0.7221150994300842
aF0.8874796628952026
aF0.8342742323875427
aF0.6265084743499756
aF0.6800440549850464
aF0.6990522146224976
aF0.8286032676696777
aF0.6983903646469116
aF0.6921766400337219
aF0.6883724331855774
aF0.5957868695259094
aF0.6807982921600342
aF0.7370619177818298
aF0.8767035007476807
aF0.6794099807739258
aF0.6493963003158569
aF0.665012776851654
aF0.7442170977592468
aF0.5844255685806274
aF0.7278308272361755
aF0.659699559211731
aF0.9207896590232849
aF0.6848467588424683
aF0.6721795797348022
aF0.6838665008544922
aF0.8893923759460449
aF0.7943734526634216
aF0.8678445816040039
aF0.8603522777557373
aF0.8370621204376221
aF0.7097905278205872
aF0.7716777920722961
aF0.7360744476318359
aF0.9963330626487732
aF0.7963029146194458
aF0.7514490485191345
aF0.6348216533660889
aF0.7435638308525085
aF0.7638365030288696
aF0.8067380785942078
aF0.7462465167045593
aF0.6035218238830566
aF0.7376625537872314
aF0.7882701754570007
aF0.7356281876564026
aF0.7882817387580872
aF0.6515159606933594
aF0.8153627514839172
aF0.783128023147583
aF0.5582790970802307
aF0.732536792755127
aF0.622680127620697
aF0.6975107789039612
aF0.618977963924408
aF0.838030219078064
aF0.7484245896339417
aF0.7587195634841919
aF0.8683317303657532
aF0.6064379215240479
aF0.7787957191467285
aF0.7628262639045715
aF0.6568514108657837
aF0.7190631628036499
aF0.8199543952941895
aF0.7888056039810181
aF0.6538270115852356
aF0.7410179972648621
aF0.7570258378982544
aF0.7005828619003296
aF0.8628634214401245
aF0.7963545918464661
aF0.7031552195549011
aF0.8386742472648621
aF0.7792410850524902
aF0.7556546330451965
aF0.8195555210113525
aF0.7650662660598755
aF0.7389450073242188
aF0.7515966892242432
aF0.6473163962364197
aF0.671633780002594
aF0.7361465692520142
aF0.7157037258148193
aF0.8533307909965515
aF0.6656731367111206
aF0.6781033873558044
aF0.7043641209602356
aF0.6900111436843872
aF0.734113335609436
aF0.663810133934021
aF0.5535023212432861
aF0.7369793057441711
aF0.5940960645675659
aF0.8465150594711304
aF0.6707174181938171
aF0.4997488558292389
aF0.7162631750106812
aF0.7388005256652832
aF0.7186238169670105
aF0.617673397064209
aF0.7720794081687927
aF0.7807142734527588
aF0.6434063911437988
aF0.8447368144989014
aF0.6568378806114197
aF0.8446494340896606
aF0.7054235935211182
aF0.7093838453292847
aF0.6801944375038147
aF0.6452906131744385
aF0.7319731116294861
aF0.7519257664680481
aF0.8715999126434326
aF0.7976226210594177
aF0.697479248046875
aF0.6757420897483826
aF0.660296618938446
aF0.671545684337616
aF0.5539252758026123
aF0.7438919544219971
aF0.6857163906097412
aF0.7876142263412476
aF0.7640520334243774
aF0.79069983959198
aF0.6946766972541809
aF0.7222954630851746
aF0.7183003425598145
aF0.7771031856536865
aF0.7323211431503296
aF0.6162656545639038
aF0.776723325252533
aF0.7388409972190857
aF0.5992257595062256
aF0.7571223974227905
aF0.8126277327537537
aF0.7312436699867249
aF0.6494322419166565
aF0.7708238363265991
aF0.7484582662582397
aF0.708175539970398
aF0.7327615022659302
aF0.6375978589057922
aF0.5754754543304443
aF0.6181992888450623
aF0.6567394733428955
aF0.7802985906600952
aF0.6286252737045288
aF0.695616602897644
aF0.7025584578514099
aF0.7843023538589478
aF0.902046799659729
aF0.7365822792053223
aF0.8077039122581482
aF0.7528904676437378
aF0.6583128571510315
aF0.6418259143829346
aF0.6874347925186157
aF0.6951621174812317
aF0.7311235666275024
aF0.774414598941803
aF0.8834302425384521
aF0.7706013321876526
aF0.7549497485160828
aF0.5871820449829102
aF0.6758278608322144
aF0.7005712389945984
aF0.8521848917007446
aF0.7582128047943115
aF0.6086575388908386
aF0.6346157193183899
aF0.7870020270347595
aF0.6917499899864197
aF0.6945260763168335
aF0.7926039099693298
aF0.6686924695968628
aF0.6590687036514282
aF0.680013120174408
aF0.716273844242096
aF0.7478446364402771
aF0.5927155017852783
aF0.8412603735923767
aF0.7064461708068848
aF0.7878254652023315
aF0.6290407180786133
aF0.8517556190490723
aF0.7253602147102356
aF0.7427533268928528
aF0.5882509350776672
aF0.8050633072853088
aF0.8588719367980957
aF0.853104829788208
aF0.8517396450042725
aF0.6657466888427734
aF0.731730043888092
aF0.6773242354393005
aF0.6627234816551208
aF0.7188490629196167
aF0.6615554690361023
aF0.7416029572486877
aF0.8185639381408691
aF0.7006146907806396
aF0.7540253400802612
aF0.6456819176673889
aF0.6217878460884094
aF0.6305248737335205
aF0.6434184908866882
aF0.6591912508010864
aF0.6506510972976685
aF0.9316810369491577
aF0.6154166460037231
aF0.653324544429779
aF0.695911705493927
aF0.6526451706886292
aF0.683308482170105
aF0.6121566295623779
aF0.8621201515197754
aF0.8434041738510132
aF0.684611439704895
aF0.691178023815155
aF0.7601310014724731
aF0.7109588980674744
aF0.6699854731559753
aF0.5978730916976929
aF0.7493928670883179
aF0.6800918579101562
aF0.7098549604415894
aF0.7973070740699768
aF0.6625131368637085
aF0.7218643426895142
aF0.712110161781311
aF0.6534209847450256
aF0.5837675333023071
aF0.7762647867202759
aF0.8087069988250732
aF0.6216185092926025
aF0.5868356227874756
aF0.729127049446106
aF0.6812188625335693
aF0.8412456512451172
aF0.6082354187965393
aF0.7116877436637878
aF0.6304035782814026
aF0.6294807195663452
aF0.727037250995636
aF0.7265517115592957
aF0.8132601976394653
aF0.6823468208312988
aF0.6396962404251099
aF0.6377757787704468
aF0.6104073524475098
aF0.6390100121498108
aF0.7366538047790527
aF0.6926945447921753
aF0.5744559168815613
aF0.8471894264221191
aF0.6945213079452515
aF0.6667986512184143
aF0.7287917733192444
aF0.6739010810852051
aF0.7229264378547668
aF0.6574190855026245
aF0.7655380368232727
aF0.6356619000434875
aF0.7574367523193359
aF0.7719853520393372
aF0.7381605505943298
aF0.7667296528816223
aF0.7267913222312927
aF0.813809335231781
aF0.6302547454833984
aF0.5893970727920532
aF0.7671193480491638
aF0.6536898612976074
aF0.8501651883125305
aF0.6144909262657166
aF0.5956934690475464
aF0.6190381050109863
aF0.6597612500190735
aF0.6960480213165283
aF0.7812076210975647
aF0.6021003723144531
aF0.7393159866333008
aF0.9584386944770813
aF0.5972405076026917
aF0.6371933221817017
aF0.6026687026023865
aF0.6268409490585327
aF0.7123154997825623
aF0.6132651567459106
aF0.74787837266922
aF0.6757146716117859
aF0.6538388133049011
aF0.6370995044708252
aF0.708021879196167
aF0.6726697683334351
aF0.6624885201454163
aF0.7569049596786499
aF0.6904696822166443
aF0.6086105108261108
aF0.7591172456741333
aF0.7341987490653992
aF0.7170007228851318
aF0.6509324908256531
aF0.7416713833808899
aF0.6646652221679688
aF0.7410773038864136
aF0.8065472841262817
aF0.6337220668792725
aF0.6934040188789368
aF0.6043827533721924
aF0.6758988499641418
aF0.9300395846366882
aF0.626621425151825
aF0.6857103705406189
aF0.6188516616821289
aF0.6437404751777649
aF0.6027806997299194
aF0.794135332107544
aF0.630066454410553
aF0.8023255467414856
aF0.5764042735099792
aF0.5643733143806458
aF0.6581120491027832
aF0.6878825426101685
aF0.6362649202346802
aF0.6374486088752747
aF0.6932973265647888
aF0.7067986726760864
aF0.6914098858833313
aF0.7909326553344727
aF0.7504317164421082
aF0.6240842938423157
aF0.7164678573608398
aF0.6362355947494507
aF0.6696106791496277
aF0.7108216285705566
aF0.6952424645423889
aF0.7520115375518799
aF0.8070225119590759
aF0.6300396919250488
aF0.653980016708374
aF0.6314784288406372
aF0.6741498708724976
aF0.6622126698493958
aF0.5374476313591003
aF0.6918271780014038
aF0.7531843185424805
aF0.6093223094940186
aF0.6655351519584656
aF0.7557759881019592
aF0.7276301980018616
aF0.7398487329483032
aF0.6677052974700928
aF0.8154066801071167
aF0.727135419845581
aF0.7265381217002869
aF0.6241557002067566
aF0.6409897804260254
aF0.705382227897644
aF0.7909384965896606
aF0.5700263977050781
aF0.7963436841964722
aF0.8185789585113525
aF0.6742315292358398
aF0.592266321182251
aF0.6423020958900452
aF0.7550667524337769
aF0.6985157132148743
aF0.7269003391265869
aF0.700027585029602
aF0.6463642120361328
aF0.6436707973480225
aF0.6860095262527466
aF0.7667104601860046
aF0.6388338804244995
aF0.601431131362915
aF0.5840571522712708
aF0.7550777196884155
aF0.6570923328399658
aF0.6416178941726685
aF0.7345184683799744
aF0.6492233276367188
aF0.7235252857208252
aF0.634819507598877
aF0.7067528367042542
aF0.7200666666030884
aF0.6701673269271851
aF0.7719869017601013
aF0.722197413444519
aF0.6646171808242798
aF0.5200487971305847
aF0.6368734836578369
aF0.6968182921409607
aF0.5964221954345703
aF0.6451712846755981
aF0.5969046354293823
aF0.6340932846069336
aF0.7733447551727295
aF0.607050895690918
aF0.6970221400260925
aF0.7615403532981873
aF0.6108391284942627
aF0.6762585639953613
aF0.7339619398117065
aF0.6203382611274719
aF0.6699443459510803
aF0.7805929183959961
aF0.5680505633354187
aF0.6505858898162842
aF0.6058850288391113
aF0.527791440486908
aF0.6756982803344727
aF0.7822275161743164
aF0.6756753921508789
aF0.658358097076416
aF0.6780784726142883
aF0.7611680030822754
aF0.6648296117782593
aF0.7324448823928833
aF0.591687798500061
aF0.6573469042778015
aF0.8418036699295044
aF0.6003870368003845
aF0.6233523488044739
aF0.7236610651016235
aF0.6298789978027344
aF0.6598812341690063
aF0.690259575843811
aF0.6541633605957031
aF0.6015321016311646
aF0.6483899354934692
aF0.6297388076782227
aF0.7580263614654541
aF0.6132875680923462
aF0.7614502906799316
aF0.9407408237457275
aF0.8226960897445679
aF0.5918790698051453
aF0.810937762260437
aF0.7131568789482117
aF0.5657548904418945
aF0.5808221101760864
aF0.5878291726112366
aF0.6448886394500732
aF0.7686800360679626
aF0.7417523860931396
aF0.7213891744613647
aF0.8444507718086243
aF0.795615553855896
aF0.5144886374473572
aF0.6179025173187256
aF0.5812905430793762
aF0.6045883893966675
aF0.6743630766868591
aF0.649686336517334
aF0.7131770849227905
aF0.6938436627388
aF0.6559773087501526
aF0.6900386810302734
aF0.7364810109138489
aF0.5768640637397766
aF0.8639444708824158
aF0.6656529307365417
aF0.7570571899414062
aF0.6983018517494202
aF0.7612384557723999
aF0.7119107842445374
aF0.7676692605018616
aF0.7397288680076599
aF0.6073192954063416
aF0.7944009900093079
aF0.64476478099823
aF0.6684314012527466
aF0.6633885502815247
aF0.6813836097717285
aF0.6565935015678406
aF0.6466845870018005
aF0.5931103825569153
aF0.7477909326553345
aF0.7333717346191406
aF0.557904839515686
aF0.552157998085022
aF0.6498350501060486
aF0.5129079818725586
aF0.5720309019088745
aF0.6793133616447449
aF0.5306256413459778
aF0.631243884563446
aF0.6783115863800049
aF0.7014433145523071
aF0.5456415414810181
aF0.6931219100952148
aF0.6941096186637878
aF0.6645515561103821
aF0.7047243118286133
aF0.6411871314048767
aF0.7179768085479736
aF0.6577620506286621
aF0.6263704299926758
aF0.6585078835487366
aF0.5812137126922607
aF0.7395734786987305
aF0.7239334583282471
aF0.8207058906555176
aF0.7714375257492065
aF0.7210071086883545
aF0.7965835928916931
aF0.702869176864624
aF0.7521344423294067
aF0.5450201034545898
aF0.7919294238090515
aF0.6748750805854797
aF0.623712420463562
aF0.5568084120750427
aF0.6753044128417969
aF0.8718998432159424
aF0.6519970893859863
aF0.7130183577537537
aF0.622999906539917
aF0.5597995519638062
aF0.596793532371521
aF0.6686076521873474
aF0.7058769464492798
aF0.7388015389442444
aF0.5631798505783081
aF0.5832805037498474
aF0.8323484659194946
aF0.6420996189117432
aF0.7291791439056396
aF0.6607469916343689
aF0.6996489763259888
aF0.683074951171875
aF0.7000713348388672
aF0.778437614440918
aF0.5974305868148804
aF0.6466621160507202
aF0.6619506478309631
aF0.6619858741760254
aF0.6475350856781006
aF0.814424455165863
aF0.6354488730430603
aF0.8501043915748596
aF0.6885820627212524
aF0.6687769889831543
aF0.661903977394104
aF0.6341357231140137
aF0.7283539772033691
aF0.6379652619361877
aF0.6473661065101624
aF0.6586185693740845
aF0.5781693458557129
aF0.648166298866272
aF0.7059526443481445
aF0.5614351630210876
aF0.5448304414749146
aF0.7270002365112305
aF0.6894741058349609
aF0.5742194652557373
aF0.7166718244552612
aF0.5959319472312927
aF0.6503819227218628
aF0.6833487749099731
aF0.6851864457130432
aF0.6232317686080933
aF0.7841129302978516
aF0.7445656657218933
aF0.7206668257713318
aF0.6831690669059753
aF0.7363729476928711
aF0.6227676272392273
aF0.7789770364761353
aF0.8302190899848938
aF0.6000630259513855
aF0.5604436993598938
aF0.6634985208511353
aF0.6707577109336853
aF0.6205933094024658
aF0.6562984585762024
aF0.5982059836387634
aF0.9070936441421509
aF0.8216797709465027
aF0.687042772769928
aF0.6986644268035889
aF0.6069192290306091
aF0.6933241486549377
aF0.6753717660903931
aF0.605644941329956
aF0.5256321430206299
aF0.6173861026763916
aF0.6186785697937012
aF0.8138436675071716
aF0.5631234049797058
aF0.6244050860404968
aF0.6909623742103577
aF0.6492916941642761
aF0.7539701461791992
aF0.7458009719848633
aF0.6761068105697632
aF0.6499835848808289
aF0.7234825491905212
aF0.5947695970535278
aF0.5706489086151123
aF0.6630315184593201
aF0.7895481586456299
aF0.6310889720916748
aF0.7628523111343384
aF0.7830978035926819
aF0.7297991514205933
aF0.639384925365448
aF0.6852303743362427
aF0.5748668909072876
aF0.7111656069755554
aF0.6156750917434692
aF0.5693782567977905
aF0.571096658706665
aF0.6517286896705627
aF0.6400065422058105
aF0.6738103628158569
aF0.5578432083129883
aF0.6289310455322266
aF0.6530680060386658
aF0.5815675258636475
aF0.7168850302696228
aF0.6377161145210266
aF0.7059910297393799
aF0.5722635984420776
aF0.5531703233718872
aF0.6472002863883972
aF0.651448667049408
aF0.5520685911178589
aF0.6359654664993286
aF0.5568426847457886
aF0.5400844812393188
aF0.6603417992591858
aF0.6793686151504517
aF0.6026526093482971
aF0.6349649429321289
aF0.5871540307998657
aF0.7126458287239075
aF0.6182526350021362
aF0.7008445262908936
aF0.5438861846923828
aF0.5890870690345764
aF0.5910918712615967
aF0.6354403495788574
aF0.5746225118637085
aF0.7612505555152893
aF0.5827929973602295
aF0.6949800848960876
aF0.6254820227622986
aF0.6141176819801331
aF0.5317617654800415
aF0.7998825311660767
aF0.6074094772338867
aF0.6634374260902405
aF0.6779811978340149
aF0.6981319189071655
aF0.667394757270813
aF0.6781264543533325
aF0.7094234228134155
aF0.5914256572723389
aF0.6429425477981567
aF0.6321703195571899
aF0.710790753364563
aF0.7219337821006775
aF0.6412633061408997
aF0.6307623386383057
aF0.7232062816619873
aF0.6434590220451355
aF0.6296584606170654
aF0.8012055158615112
aF0.5666583776473999
aF0.6867468953132629
aF0.7935822010040283
aF0.6509009599685669
aF0.5117728114128113
aF0.5020548105239868
aF0.5971592664718628
aF0.6273080110549927
aF0.6599238514900208
aF0.6472834348678589
aF0.5626819133758545
aF0.7340830564498901
aF0.5537651777267456
aF0.5657198429107666
aF0.6692981123924255
aF0.5362226366996765
aF0.6707242131233215
aF0.6105333566665649
aF0.6170053482055664
aF0.540283203125
aF0.7135541439056396
aF0.5976640582084656
aF0.6893619894981384
aF0.5938438773155212
aF0.5792086720466614
aF0.6702196598052979
aF0.7130858302116394
aF0.8364831209182739
aF0.7905576229095459
aF0.6067643165588379
aF0.6624183058738708
aF0.6719239354133606
aF0.7066833972930908
aF0.8023601174354553
aF0.6832748055458069
aF0.6107209920883179
aF0.6466837525367737
aF0.6877305507659912
aF0.6747702956199646
aF0.683197021484375
aF0.5027794241905212
aF0.6462189555168152
aF0.6068287491798401
aF0.5413399934768677
aF0.4715600907802582
aF0.5938403606414795
aF0.6815604567527771
aF0.724839448928833
aF0.7058669328689575
aF0.6219487190246582
aF0.6299053430557251
aF0.6493516564369202
aF0.6144843101501465
aF0.7198201417922974
aF0.6843107342720032
aF0.6368585824966431
aF0.4795699715614319
aF0.7411577105522156
aF0.6690406799316406
aF0.6181621551513672
aF0.6030250191688538
aF0.6824025511741638
aF0.7485778331756592
aF0.7179251909255981
aF0.5994508862495422
aF0.6463445425033569
aF0.5348426699638367
aF0.647332489490509
aF0.5813873410224915
aF0.6694239974021912
aF0.6348814964294434
aF0.6401649713516235
aF0.7165079712867737
aF0.6050175428390503
aF0.5974754691123962
aF0.6874244213104248
aF0.6213361024856567
aF0.7958955764770508
aF0.7015109062194824
aF0.6500563621520996
aF0.7095179557800293
aF0.49375295639038086
aF0.6556956768035889
aF0.5674037933349609
aF0.5179168581962585
aF0.6813837289810181
aF0.5136556029319763
aF0.6558253765106201
aF0.6731346249580383
aF0.5584225654602051
aF0.6499650478363037
aF0.5839956998825073
aF0.7473940253257751
aF0.6689934134483337
aF0.6576995253562927
aF0.640457272529602
aF0.5818930268287659
aF0.4842071533203125
aF0.7190907001495361
aF0.8488075733184814
aF0.6933374404907227
aF0.68532395362854
aF0.7551239132881165
aF0.6079021096229553
aF0.5127241611480713
aF0.6907653212547302
aF0.6359028220176697
aF0.6813626289367676
aF0.6943655610084534
aF0.5303105115890503
aF0.46478384733200073
aF0.6034591197967529
aF0.7617133855819702
aF0.6334354877471924
aF0.5550986528396606
aF0.6717391610145569
aF0.5361932516098022
aF0.7590036988258362
aF0.656240701675415
aF0.6324493885040283
aF0.4897019863128662
aF0.5900758504867554
aF0.598488986492157
aF0.6355677247047424
aF0.7284878492355347
aF0.5952311754226685
aF0.6710724830627441
aF0.5743125677108765
aF0.6442825198173523
aF0.5485855937004089
aF0.6548846960067749
aF0.6642998456954956
aF0.6379685997962952
aF0.5063873529434204
aF0.5349989533424377
aF0.5762273669242859
aF0.7476931810379028
aF0.6799262762069702
aF0.7627624273300171
aF0.716516375541687
aF0.7120226621627808
aF0.6079797744750977
aF0.6681867837905884
aF0.6091194152832031
aF0.7342530488967896
aF0.8235187530517578
aF0.7154072523117065
aF0.5536553263664246
aF0.6673563718795776
aF0.6907850503921509
aF0.5529653429985046
aF0.6872465014457703
aF0.8169730305671692
aF0.5904614925384521
aF0.6793938279151917
aF0.5872164368629456
aF0.6754533052444458
aF0.6397157311439514
aF0.7225887775421143
aF0.6237936019897461
aF0.5510647296905518
aF0.6315878033638
aF0.6034507751464844
aF0.6339464783668518
aF0.7825208902359009
aF0.7165848016738892
aF0.629650354385376
aF0.7521310448646545
aF0.7132117748260498
aF0.6202005743980408
aF0.551688551902771
aF0.6035298109054565
aF0.6399821043014526
aF0.6873741149902344
aF0.6595358848571777
aF0.6638247966766357
aF0.6091306805610657
aF0.7699485421180725
aF0.7064235210418701
aF0.5646777749061584
aF0.6083624958992004
aF0.6367815732955933
aF0.6404515504837036
aF0.5699775218963623
aF0.5600335597991943
aF0.7441255450248718
aF0.5556684136390686
aF0.6378313899040222
aF0.5835397243499756
aF0.669011116027832
aF0.7191585302352905
aF0.7130107879638672
aF0.6096917390823364
aF0.5855376124382019
aF0.6918894648551941
aF0.6032373905181885
aF0.6400310397148132
aF0.5672229528427124
aF0.5149929523468018
aF0.5956474542617798
aF0.5449924468994141
aF0.5449826717376709
aF0.6934733390808105
aF0.616283655166626
aF0.6593151688575745
aF0.5549970865249634
aF0.5881693363189697
aF0.6328531503677368
aF0.6555449366569519
aF0.5215743184089661
aF0.6083778142929077
aF0.6192493438720703
aF0.6974117755889893
aF0.5578776597976685
aF0.6958884000778198
aF0.6576640009880066
aF0.7777342796325684
aF0.5535389184951782
aF0.5744726657867432
aF0.7436791062355042
aF0.7387197017669678
aF0.5990641117095947
aF0.6631824374198914
aF0.6394852995872498
aF0.5992718935012817
aF0.5953285694122314
aF0.6121346354484558
aF0.5795598030090332
aF0.7006723284721375
aF0.535689115524292
aF0.6275307536125183
aF0.594231128692627
aF0.6692821979522705
aF0.7931386232376099
aF0.6614230871200562
aF0.7156476974487305
aF0.607900857925415
aF0.569901168346405
aF0.7011839151382446
aF0.7085915803909302
aF0.5848633050918579
aF0.5691337585449219
aF0.5952324271202087
aF0.4967461824417114
aF0.710525631904602
aF0.6452139616012573
aF0.6717244982719421
aF0.6813120245933533
aF0.6582333445549011
aF0.6474668383598328
aF0.6554699540138245
aF0.6808059811592102
aF0.6350138187408447
aF0.5797436237335205
aF0.5043922662734985
aF0.6392415761947632
aF0.699897050857544
aF0.6205949783325195
aF0.5711508989334106
aF0.6670061349868774
aF0.6307191252708435
aF0.6580638885498047
aF0.6334753632545471
aF0.6264784336090088
aF0.7323666214942932
aF0.6252611875534058
aF0.6524161100387573
aF0.6872523427009583
aF0.5767879486083984
aF0.5460342168807983
aF0.6545126438140869
aF0.767614483833313
aF0.7387675046920776
aF0.6023579835891724
aF0.5400420427322388
aF0.5648815035820007
aF0.6126900911331177
aF0.634508490562439
aF0.624380350112915
aF0.5857945680618286
aF0.602540135383606
aF0.6139068603515625
aF0.556297242641449
aF0.6822868585586548
aF0.6422643661499023
aF0.6113557815551758
aF0.6221340894699097
aF0.6264373064041138
aF0.6227819919586182
aF0.6408056616783142
aF0.6676092147827148
aF0.6681486368179321
aF0.6446348428726196
aF0.6326144933700562
aF0.6714868545532227
aF0.7634133100509644
aF0.6442528963088989
aF0.624213457107544
aF0.6853015422821045
aF0.7117042541503906
aF0.6109411716461182
aF0.5637253522872925
aF0.6613956689834595
aF0.5869859457015991
aF0.6008777618408203
aF0.6940902471542358
aF0.6317429542541504
aF0.7071884870529175
aF0.6052402257919312
aF0.6402084827423096
aF0.717481791973114
aF0.6112133264541626
aF0.5953213572502136
aF0.6395559906959534
aF0.5766475200653076
aF0.5815136432647705
aF0.5693948268890381
aF0.5693545937538147
aF0.5465413331985474
aF0.6869583129882812
aF0.5895029902458191
aF0.5817360877990723
aF0.8096048831939697
aF0.5870113372802734
aF0.5869879722595215
aF0.5156634449958801
aF0.6079421043395996
aF0.6670330762863159
aF0.6043795347213745
aF0.6485992670059204
aF0.6814512610435486
aF0.645439863204956
aF0.6254109144210815
aF0.5629642605781555
aF0.6258482336997986
aF0.6148916482925415
aF0.6505724191665649
aF0.6070539355278015
aF0.598186731338501
aF0.6216926574707031
aF0.6992394924163818
aF0.7025222778320312
aF0.7157217264175415
aF0.6802440881729126
aF0.6205593347549438
aF0.5830297470092773
aF0.586014986038208
aF0.6045935153961182
aF0.6008396148681641
aF0.7280253171920776
aF0.6670841574668884
aF0.61920166015625
aF0.6170336008071899
aF0.672710657119751
aF0.5953629612922668
aF0.6697596311569214
aF0.5627444386482239
aF0.596625804901123
aF0.6660445928573608
aF0.5704084634780884
aF0.6344701051712036
aF0.6288148164749146
aF0.5822532176971436
aF0.6863698959350586
aF0.6165862083435059
aF0.626244306564331
aF0.590116024017334
aF0.6024397015571594
aF0.6792610287666321
aF0.6017512083053589
aF0.67425537109375
aF0.5528350472450256
aF0.5838834643363953
aF0.5693904161453247
aF0.778142511844635
aF0.7722426652908325
aF0.7251975536346436
aF0.5798930525779724
aF0.5627630352973938
aF0.6231377124786377
aF0.526286780834198
aF0.5825774669647217
aF0.6136178970336914
aF0.744583785533905
aF0.6084707975387573
aF0.6128125190734863
aF0.5606598854064941
aF0.6958937048912048
aF0.5052831172943115
aF0.5807939767837524
aF0.774939775466919
aF0.5997029542922974
aF0.6678729057312012
aF0.6692588925361633
aF0.579484224319458
aF0.5566197633743286
aF0.6638008952140808
aF0.6659492254257202
aF0.6033885478973389
aF0.586693525314331
aF0.6615431904792786
aF0.5119918584823608
aF0.5437888503074646
aF0.5081053972244263
aF0.5664891004562378
aF0.7215855121612549
aF0.5312378406524658
aF0.614812970161438
aF0.6289712190628052
aF0.6025487184524536
aF0.5828260183334351
aF0.6279292106628418
aF0.6561359167098999
aF0.6338980197906494
aF0.6676428914070129
aF0.5744879245758057
aF0.7040817737579346
aF0.6162877678871155
aF0.5905717611312866
aF0.5216161012649536
aF0.6347931623458862
aF0.680819034576416
aF0.739396870136261
aF0.5841378569602966
aF0.5241352319717407
aF0.6445168256759644
aF0.5710312128067017
aF0.4846809208393097
aF0.7037708759307861
aF0.559489369392395
aF0.5866591930389404
aF0.5486765503883362
aF0.5462878346443176
aF0.6031482815742493
aF0.5536941289901733
aF0.6247042417526245
aF0.5192292928695679
aF0.575778603553772
aF0.6062765121459961
aF0.6420516967773438
aF0.6369764804840088
aF0.6322957277297974
aF0.6058264970779419
aF0.6247090697288513
aF0.6405065059661865
aF0.5006493330001831
aF0.6298489570617676
aF0.5578597187995911
aF0.6582337617874146
aF0.5201944708824158
aF0.572728157043457
aF0.6107141971588135
aF0.6264651417732239
aF0.619940996170044
aF0.520930290222168
aF0.5310768485069275
aF0.6282929182052612
aF0.5443207025527954
aF0.5863790512084961
aF0.5481021404266357
aF0.6089118719100952
aF0.6942441463470459
aF0.6616197824478149
aF0.7115749716758728
aF0.5639265775680542
aF0.5733750462532043
aF0.5858492851257324
aF0.6240552663803101
aF0.5899727940559387
aF0.5657347440719604
aF0.5258010625839233
aF0.4941749572753906
aF0.6564504504203796
aF0.694100022315979
aF0.6659783124923706
aF0.5530321002006531
aF0.5947107076644897
aF0.7332397699356079
aF0.6312427520751953
aF0.6863332986831665
aF0.7172855138778687
aF0.638680100440979
aF0.5077017545700073
aF0.6758360862731934
aF0.770028293132782
aF0.644490122795105
aF0.46446436643600464
aF0.601560115814209
aF0.6221989393234253
aF0.6132282614707947
aF0.550958514213562
aF0.6374311447143555
aF0.579809308052063
aF0.5727102756500244
aF0.6257011890411377
aF0.6254498362541199
aF0.6443625688552856
aF0.5384347438812256
aF0.5873161554336548
aF0.61672043800354
aF0.6013575792312622
aF0.6100478172302246
aF0.5487513542175293
aF0.6044410467147827
aF0.6811099052429199
aF0.5684983134269714
aF0.6089151501655579
aF0.5980852842330933
aF0.6100397109985352
aF0.6426804065704346
aF0.6547924280166626
aF0.5035995244979858
aF0.5423111319541931
aF0.595007061958313
aF0.6949039697647095
aF0.7745753526687622
aF0.4926445782184601
aF0.6511395573616028
aF0.6045616865158081
aF0.5451498031616211
aF0.6580730080604553
aF0.7156375646591187
aF0.8429362773895264
aF0.5308341383934021
aF0.5035121440887451
aF0.6480648517608643
aF0.5978823900222778
aF0.4681902825832367
aF0.6825486421585083
aF0.5701618194580078
aF0.6512548327445984
aF0.559660017490387
aF0.6698540449142456
aF0.6040239334106445
aF0.5010777711868286
aF0.6221975684165955
aF0.6331546902656555
aF0.5782314538955688
aF0.5309521555900574
aF0.660220205783844
aF0.5504608154296875
aF0.6166158318519592
aF0.6776067018508911
aF0.7334737777709961
aF0.5138349533081055
aF0.5608001947402954
aF0.7018129229545593
aF0.48759302496910095
aF0.5162726640701294
aF0.5258556604385376
aF0.6685507297515869
aF0.5713140964508057
aF0.6231489181518555
aF0.809188723564148
aF0.7191413640975952
aF0.5775849223136902
aF0.5828599333763123
aF0.7566834688186646
aF0.6852736473083496
aF0.6671197414398193
aF0.5767242908477783
aF0.7358713150024414
aF0.6267586946487427
aF0.5627556443214417
aF0.5387442111968994
aF0.5924632549285889
aF0.5288803577423096
aF0.627251148223877
aF0.6587278842926025
aF0.7000309228897095
aF0.7151970863342285
aF0.4838031530380249
aF0.6614538431167603
aF0.6270301938056946
aF0.6479450464248657
aF0.6028090715408325
aF0.6048312187194824
aF0.7145651578903198
aF0.647119402885437
aF0.7264004945755005
aF0.5986244678497314
aF0.6767897605895996
aF0.6391567587852478
aF0.5738978385925293
aF0.6318733096122742
aF0.6683837175369263
aF0.509657084941864
aF0.611968457698822
aF0.7399235963821411
aF0.5192729234695435
aF0.7247253060340881
aF0.49005651473999023
aF0.518833577632904
aF0.6262446045875549
aF0.6235328912734985
aF0.4886775016784668
aF0.5674076080322266
aF0.5169761180877686
aF0.5982537269592285
aF0.5549019575119019
aF0.5088849663734436
aF0.6728904247283936
aF0.6374914646148682
aF0.7061656713485718
aF0.46614718437194824
aF0.6817576885223389
aF0.614363431930542
aF0.7112293243408203
aF0.5936650037765503
aF0.6815260648727417
aF0.6527361869812012
aF0.5692321062088013
aF0.6882005929946899
aF0.5724062323570251
aF0.5888367891311646
aF0.602378249168396
aF0.6884903907775879
aF0.647239089012146
aF0.71315598487854
aF0.5904756188392639
aF0.4626004695892334
aF0.5808024406433105
aF0.6016584634780884
aF0.8204225897789001
aF0.5888096690177917
aF0.58088219165802
aF0.6648041605949402
aF0.5321058034896851
aF0.7121734023094177
aF0.7043616771697998
aF0.6680493354797363
aF0.4372028708457947
aF0.6137665510177612
aF0.6043406128883362
aF0.5901848673820496
aF0.5575769543647766
aF0.5675063133239746
aF0.7316408157348633
aF0.7312580347061157
aF0.5194308161735535
aF0.6270789504051208
aF0.6176623702049255
aF0.6736030578613281
aF0.6007214784622192
aF0.6083212494850159
aF0.5422857999801636
aF0.5986150503158569
aF0.6689025163650513
aF0.47603148221969604
aF0.5298759937286377
aF0.6067397594451904
aF0.5361902713775635
aF0.6261168718338013
aF0.6836555004119873
aF0.5038431286811829
aF0.5689660906791687
aF0.48635804653167725
aF0.7087773084640503
aF0.6029999256134033
aF0.6792099475860596
aF0.6808390617370605
aF0.5485147833824158
aF0.6106882095336914
aF0.6622598767280579
aF0.6841412782669067
aF0.5668873190879822
aF0.5956147909164429
aF0.6190105676651001
aF0.5904237627983093
aF0.5653219223022461
aF0.46629664301872253
aF0.6247951984405518
aF0.6650477647781372
aF0.6190723180770874
aF0.6607835292816162
aF0.6584841012954712
aF0.6796728372573853
aF0.6536455154418945
aF0.5347553491592407
aF0.671589732170105
aF0.5887523889541626
aF0.5703768134117126
aF0.6432572603225708
aF0.6579149961471558
aF0.6014832258224487
aF0.5588893890380859
aF0.602292537689209
aF0.49129125475883484
aF0.5381128787994385
aF0.5594055652618408
aF0.7106103897094727
aF0.7015619277954102
aF0.5836836099624634
aF0.7238010168075562
aF0.616267740726471
aF0.7009141445159912
aF0.5879758596420288
aF0.6314191818237305
aF0.5166978240013123
aF0.5609537363052368
aF0.6059473156929016
aF0.7137717604637146
aF0.5605947375297546
aF0.5603793859481812
aF0.6159121990203857
aF0.530097484588623
aF0.4964379668235779
aF0.5738341808319092
aF0.5473021268844604
aF0.564984917640686
aF0.6972994804382324
aF0.5401979684829712
aF0.5739732384681702
aF0.5679318308830261
aF0.5107811689376831
aF0.5129634141921997
aF0.6199886798858643
aF0.5828073620796204
aF0.6442699432373047
aF0.5169274806976318
aF0.5947238802909851
aF0.6907477378845215
aF0.6111313104629517
aF0.6057224273681641
aF0.6872388124465942
aF0.5985076427459717
aF0.6077307462692261
aF0.6234869956970215
aF0.5898910760879517
aF0.6894642114639282
aF0.6319078207015991
aF0.6866903305053711
aF0.6187541484832764
aF0.6438089609146118
aF0.5678350925445557
aF0.5798587203025818
aF0.561355710029602
aF0.6209790706634521
aF0.6127923130989075
aF0.5820555686950684
aF0.7128382921218872
aF0.5605677366256714
aF0.5558880567550659
aF0.5910133123397827
aF0.5592538714408875
aF0.546156644821167
aF0.5770634412765503
aF0.5730288028717041
aF0.5491127371788025
aF0.6265196800231934
aF0.5568758249282837
aF0.7299962043762207
aF0.7001081705093384
aF0.5639106035232544
aF0.6042124629020691
aF0.6234172582626343
aF0.6283358335494995
aF0.5843398571014404
aF0.6820608377456665
aF0.5543553829193115
aF0.6181232929229736
aF0.6643643379211426
aF0.6941236257553101
aF0.6047540903091431
aF0.5921928882598877
aF0.6871218085289001
aF0.6058254241943359
aF0.6965309381484985
aF0.5368548631668091
aF0.5468710660934448
aF0.7324459552764893
aF0.5911962985992432
aF0.6344797611236572
aF0.45001256465911865
aF0.5145334005355835
aF0.5630768537521362
aF0.587527871131897
aF0.5639660954475403
aF0.7484675645828247
aF0.643690824508667
aF0.6658441424369812
aF0.7347261309623718
aF0.5703521966934204
aF0.6601200699806213
aF0.6082109212875366
aF0.6584870219230652
aF0.5599125623703003
aF0.5841864943504333
aF0.5890453457832336
aF0.49023985862731934
aF0.6206077337265015
aF0.5862970352172852
aF0.616484522819519
aF0.5988156795501709
aF0.5462804436683655
aF0.5020132660865784
aF0.552181601524353
aF0.5291895866394043
aF0.6035747528076172
aF0.5569027066230774
aF0.5475497841835022
aF0.47257858514785767
aF0.5906779766082764
aF0.612821102142334
aF0.5767350196838379
aF0.5883340835571289
aF0.645961582660675
aF0.6405254602432251
aF0.5759773254394531
aF0.5921182632446289
aF0.5486958026885986
aF0.6384287476539612
aF0.7045737504959106
aF0.6782722473144531
aF0.5670721530914307
aF0.649786651134491
aF0.6387273669242859
aF0.5476162433624268
aF0.5086126327514648
aF0.6907777786254883
aF0.5370285511016846
aF0.5514267683029175
aF0.4608202576637268
aF0.5965591669082642
aF0.5606012940406799
aF0.4971613585948944
aF0.5591514110565186
aF0.5133491158485413
aF0.6766581535339355
aF0.5287277698516846
aF0.5702945590019226
aF0.6357168555259705
aF0.5533016920089722
aF0.5029475688934326
aF0.6993707418441772
aF0.5446885824203491
aF0.5761308670043945
aF0.6222672462463379
aF0.624337911605835
aF0.5874835848808289
aF0.610155463218689
aF0.5451433658599854
aF0.5444741249084473
aF0.636060357093811
aF0.6478540897369385
aF0.6571622490882874
aF0.5785953998565674
aF0.5466441512107849
aF0.6052240133285522
aF0.5250639915466309
aF0.5423003435134888
aF0.6043061017990112
aF0.6260899901390076
aF0.6583375930786133
aF0.7451063394546509
aF0.585655927658081
aF0.5911997556686401
aF0.6328589916229248
aF0.6747269034385681
aF0.6550071835517883
aF0.5197775363922119
aF0.5817004442214966
aF0.6354284286499023
aF0.6484320163726807
aF0.6004412770271301
aF0.5103412866592407
aF0.5351358652114868
aF0.6745017170906067
aF0.587962806224823
aF0.6721351742744446
aF0.48943859338760376
aF0.6137463450431824
aF0.5395067930221558
aF0.6706109046936035
aF0.5897971391677856
aF0.6759666204452515
aF0.5700770616531372
aF0.6082766056060791
aF0.5722904205322266
aF0.5042215585708618
aF0.6159048080444336
aF0.7096041440963745
aF0.5676062107086182
aF0.6714061498641968
aF0.7378515005111694
aF0.6826252937316895
aF0.5409375429153442
aF0.7015885710716248
aF0.6276594996452332
aF0.5801187753677368
aF0.6888238787651062
aF0.4716256558895111
aF0.55663001537323
aF0.6772303581237793
aF0.721648097038269
aF0.6071771383285522
aF0.5918413400650024
aF0.6634399890899658
aF0.5799236297607422
aF0.6530421376228333
aF0.4667571187019348
aF0.6195298433303833
aF0.6446080207824707
aF0.5796856880187988
aF0.6600832939147949
aF0.6645114421844482
aF0.6384841203689575
aF0.576968789100647
aF0.5327710509300232
aF0.5104563236236572
aF0.5612929463386536
aF0.4991801977157593
aF0.48452824354171753
aF0.5616624355316162
aF0.6138267517089844
aF0.554302453994751
aF0.5007566213607788
aF0.6016664505004883
aF0.5515631437301636
aF0.5898650884628296
aF0.4938831329345703
aF0.5197706818580627
aF0.5861713290214539
aF0.6627384424209595
aF0.5824505686759949
aF0.506450891494751
aF0.5741981863975525
aF0.5951938629150391
aF0.651206910610199
aF0.6430412530899048
aF0.5577832460403442
aF0.7488622665405273
aF0.6048494577407837
aF0.5875362157821655
aF0.6525458097457886
aF0.594554603099823
aF0.5963022708892822
aF0.5684553980827332
aF0.45374611020088196
aF0.5118348002433777
aF0.6569993495941162
aF0.7596273422241211
aF0.5412949323654175
aF0.5242975950241089
aF0.5732637047767639
aF0.5657272338867188
aF0.5933367013931274
aF0.6322113275527954
aF0.5714319944381714
aF0.5992662906646729
aF0.6397783160209656
aF0.5880477428436279
aF0.5847262740135193
aF0.5852240324020386
aF0.5891591310501099
aF0.5888533592224121
aF0.6504912376403809
aF0.657073974609375
aF0.5546658039093018
aF0.5409610867500305
aF0.6084983348846436
aF0.5428333282470703
aF0.6958754062652588
aF0.5565608739852905
aF0.5626083016395569
aF0.6025207042694092
aF0.559208333492279
aF0.4859156310558319
aF0.6629903316497803
aF0.6914381980895996
aF0.6017462015151978
aF0.5764551758766174
aF0.6121478080749512
aF0.6664443016052246
aF0.5561425685882568
aF0.5554050207138062
aF0.6083135604858398
aF0.6087237596511841
aF0.593458890914917
aF0.5998131036758423
aF0.5950994491577148
aF0.5677566528320312
aF0.5050657391548157
aF0.5827813744544983
aF0.5604912042617798
aF0.7027254104614258
aF0.5662875175476074
aF0.5582114458084106
aF0.6070297956466675
aF0.6271829605102539
aF0.5358484983444214
aF0.5847002267837524
aF0.5324667096138
aF0.6677358746528625
aF0.5711640119552612
aF0.4232127368450165
aF0.5872342586517334
aF0.46887141466140747
aF0.5291577577590942
aF0.6537668704986572
aF0.6476389169692993
aF0.6021389961242676
aF0.5327237844467163
aF0.560191810131073
aF0.5303629040718079
aF0.6721906661987305
aF0.6726976037025452
aF0.6014471650123596
aF0.5622079372406006
aF0.4835110902786255
aF0.6895803213119507
aF0.6906445026397705
aF0.6717429757118225
aF0.5572248697280884
aF0.5292075872421265
aF0.6533402800559998
aF0.5064854621887207
aF0.5726014375686646
aF0.6328668594360352
aF0.5580117702484131
aF0.6067557334899902
aF0.5310603380203247
aF0.7282534837722778
aF0.6310101747512817
aF0.5743163228034973
aF0.5323957204818726
aF0.5963397026062012
aF0.5774831771850586
aF0.7182140350341797
aF0.46406129002571106
aF0.46941372752189636
aF0.5736750364303589
aF0.6627472639083862
aF0.5871644020080566
aF0.6238241195678711
aF0.512601375579834
aF0.5322450399398804
aF0.688703715801239
aF0.5619768500328064
aF0.5757536888122559
aF0.6267544031143188
aF0.6495183706283569
aF0.5269304513931274
aF0.5430068969726562
aF0.5891677141189575
aF0.5306867361068726
aF0.5660108327865601
aF0.6788785457611084
aF0.6517160534858704
aF0.6197466850280762
aF0.6686896085739136
aF0.6159889101982117
aF0.5622731447219849
aF0.4671419858932495
aF0.6766253709793091
aF0.5004832744598389
aF0.5726016759872437
aF0.6505922675132751
aF0.583410918712616
aF0.45348846912384033
aF0.7036887407302856
aF0.6328245401382446
aF0.6234813928604126
aF0.5347893834114075
aF0.6167789101600647
aF0.6674928665161133
aF0.6159862279891968
aF0.6886613965034485
aF0.5956574082374573
aF0.5859654545783997
aF0.6702544689178467
aF0.5602073669433594
aF0.6450995802879333
aF0.5680756568908691
aF0.5833892226219177
aF0.6520684957504272
aF0.6306961178779602
aF0.5633636116981506
aF0.62235426902771
aF0.6326671838760376
aF0.5709507465362549
aF0.6647190451622009
aF0.6380443572998047
aF0.6333081722259521
aF0.7084566354751587
aF0.7509618997573853
aF0.5472869873046875
aF0.6224957704544067
aF0.5429084300994873
aF0.5609790682792664
aF0.5197383165359497
aF0.556596040725708
aF0.6943541765213013
aF0.5938732624053955
aF0.508550763130188
aF0.6672078967094421
aF0.5250310897827148
aF0.5043189525604248
aF0.5768493413925171
aF0.5149182677268982
aF0.622363805770874
aF0.645723819732666
aF0.5509170293807983
aF0.574532687664032
aF0.5133098363876343
aF0.4923272728919983
aF0.5356049537658691
aF0.5280686020851135
aF0.5326988697052002
aF0.7663612365722656
aF0.5602027773857117
aF0.5390543937683105
aF0.5839524269104004
aF0.5076068639755249
aF0.6293007135391235
aF0.6076508164405823
aF0.6066896915435791
aF0.5329828858375549
aF0.6735368967056274
aF0.5812383890151978
aF0.5891490578651428
aF0.5830498933792114
aF0.5982820987701416
aF0.6123478412628174
aF0.6594237089157104
aF0.6817367672920227
aF0.5889303684234619
aF0.5849453210830688
aF0.6224203109741211
aF0.5007327795028687
aF0.5844651460647583
aF0.6361116170883179
aF0.6266059875488281
aF0.49824899435043335
aF0.6057841777801514
aF0.6366490125656128
aF0.6619163751602173
aF0.5657212138175964
aF0.5408790111541748
aF0.5717250108718872
aF0.5372300744056702
aF0.5984071493148804
aF0.6533499360084534
aF0.6388798952102661
aF0.5377510786056519
aF0.4661628007888794
aF0.503700315952301
aF0.6656874418258667
aF0.5121018886566162
aF0.65595543384552
aF0.6963196396827698
aF0.608055830001831
aF0.635010838508606
aF0.6052009463310242
aF0.5662996172904968
aF0.5659580230712891
aF0.643090009689331
aF0.41047289967536926
aF0.5467904806137085
aF0.6109901070594788
aF0.6910451650619507
aF0.704991340637207
aF0.5861635804176331
aF0.47108930349349976
aF0.6643819212913513
aF0.5725258588790894
aF0.5767294764518738
aF0.6508162021636963
aF0.535516619682312
aF0.5392016172409058
aF0.6460389494895935
aF0.4906637370586395
aF0.6456654667854309
aF0.5070685148239136
aF0.5346386432647705
aF0.6719092130661011
aF0.4638412296772003
aF0.5111164450645447
aF0.5329453945159912
aF0.4869059920310974
aF0.632401704788208
aF0.5792292356491089
aF0.6204228401184082
aF0.6956275701522827
aF0.5859555602073669
aF0.5415265560150146
aF0.564077615737915
aF0.5091466903686523
aF0.559246838092804
aF0.6751705408096313
aF0.4392659664154053
aF0.4409041702747345
aF0.48186057806015015
aF0.6230407953262329
aF0.5645638704299927
aF0.5242869257926941
aF0.6886388659477234
aF0.5081609487533569
aF0.5002120733261108
aF0.632936954498291
aF0.4958029091358185
aF0.6933716535568237
aF0.47032326459884644
aF0.523440957069397
aF0.6221174001693726
aF0.5918502807617188
aF0.6632817983627319
aF0.5962854027748108
aF0.5436346530914307
aF0.658869206905365
aF0.4991045892238617
aF0.6407599449157715
aF0.5581369400024414
aF0.5060261487960815
aF0.5870088338851929
aF0.6679387092590332
aF0.5675143003463745
aF0.547991156578064
aF0.6692843437194824
aF0.61181640625
aF0.7137702703475952
aF0.6236064434051514
aF0.6334285736083984
aF0.603188157081604
aF0.5793938636779785
aF0.6215523481369019
aF0.6462198495864868
aF0.5506494641304016
aF0.6301746368408203
aF0.5986440181732178
aF0.6943981051445007
aF0.5270720720291138
aF0.5000183582305908
aF0.552665114402771
aF0.49393343925476074
aF0.5175045728683472
aF0.5285457968711853
aF0.5227353572845459
aF0.569246768951416
aF0.5645426511764526
aF0.5390076041221619
aF0.5314604043960571
aF0.5711559057235718
aF0.7587264180183411
aF0.5763838887214661
aF0.5643811225891113
aF0.6016823053359985
aF0.6488228440284729
aF0.5245465040206909
aF0.6305735111236572
aF0.5264576077461243
aF0.4673115015029907
aF0.6342970132827759
aF0.5435820817947388
aF0.5879472494125366
aF0.5838556289672852
aF0.6353504657745361
aF0.5949128866195679
aF0.695489764213562
aF0.6107486486434937
aF0.5359268188476562
aF0.5824639797210693
aF0.5833547115325928
aF0.553381085395813
aF0.6795331835746765
aF0.5945637226104736
aF0.5450804829597473
aF0.5555005073547363
aF0.5441563129425049
aF0.4802180230617523
aF0.5146435499191284
aF0.564356803894043
aF0.6238353848457336
aF0.545206606388092
aF0.5370869636535645
aF0.5761115550994873
aF0.6004276871681213
aF0.5211918950080872
aF0.600743293762207
aF0.7047688364982605
aF0.644110381603241
aF0.7072293162345886
aF0.6131469011306763
aF0.45118018984794617
aF0.5057952404022217
aF0.6489660739898682
aF0.5298570394515991
aF0.5200304985046387
aF0.5024583339691162
aF0.6245888471603394
aF0.6516618132591248
aF0.553210437297821
aF0.6135025024414062
aF0.6034011244773865
aF0.5572624206542969
aF0.598734974861145
aF0.57289719581604
aF0.5797548890113831
aF0.6206554174423218
aF0.6099830865859985
aF0.6090501546859741
aF0.5159674882888794
aF0.582944929599762
aF0.5471073389053345
aF0.5815513730049133
aF0.6413331031799316
aF0.5573421120643616
aF0.6194649934768677
aF0.6838819980621338
aF0.49543988704681396
aF0.5662722587585449
aF0.6770333051681519
aF0.5824002027511597
aF0.5742695331573486
aF0.6705002188682556
aF0.6619734168052673
aF0.5860978364944458
aF0.6908877491950989
aF0.5320944786071777
aF0.6312457323074341
aF0.5303400158882141
aF0.5498547554016113
aF0.5194175243377686
aF0.7399382591247559
aF0.5362228155136108
aF0.5822941064834595
aF0.6514283418655396
aF0.6543232798576355
aF0.5764808654785156
aF0.5659630298614502
aF0.6130446791648865
aF0.5280248522758484
aF0.5163941383361816
aF0.6332122683525085
aF0.5508841276168823
aF0.551669716835022
aF0.6206761002540588
aF0.5028235912322998
aF0.6485551595687866
aF0.505926251411438
aF0.5530438423156738
aF0.591695249080658
aF0.49962887167930603
aF0.6653475761413574
aF0.5513413548469543
aF0.5348665118217468
aF0.6422559022903442
aF0.5415637493133545
aF0.577070415019989
aF0.48804396390914917
aF0.5779165029525757
aF0.5155447125434875
aF0.5469859838485718
aF0.47873836755752563
aF0.7117537260055542
aF0.6112869381904602
aF0.5762240886688232
aF0.5851792097091675
aF0.6618157625198364
aF0.7155318260192871
aF0.5858942270278931
aF0.6439364552497864
aF0.5123955011367798
aF0.5451852083206177
aF0.7022061347961426
aF0.5563917756080627
aF0.6811355352401733
aF0.6123080253601074
aF0.4945235252380371
aF0.5161842107772827
aF0.586249828338623
aF0.5654119849205017
aF0.6919759511947632
aF0.5531215667724609
aF0.4806283116340637
aF0.6223166584968567
aF0.539690375328064
aF0.6672929525375366
aF0.6303426027297974
aF0.4312046766281128
aF0.621611475944519
aF0.636502742767334
aF0.5522719621658325
aF0.5178646445274353
aF0.5939069986343384
aF0.5017353296279907
aF0.5467338562011719
aF0.5277692079544067
aF0.5519914627075195
aF0.6796567440032959
aF0.5075492858886719
aF0.5921186208724976
aF0.6073258519172668
aF0.5729809999465942
aF0.5699014663696289
aF0.5714840888977051
aF0.5563388466835022
aF0.5253602266311646
aF0.5746178030967712
aF0.6114795207977295
aF0.49209755659103394
aF0.527816891670227
aF0.5872323513031006
aF0.5404483079910278
aF0.5735832452774048
aF0.4975525140762329
aF0.6808243989944458
aF0.5017441511154175
aF0.5984214544296265
aF0.5583198070526123
aF0.687999963760376
aF0.6510370373725891
aF0.5370545983314514
aF0.5945713520050049
aF0.6298303604125977
aF0.5085774660110474
aF0.5102885961532593
aF0.5893117189407349
aF0.5138716697692871
aF0.5651262998580933
aF0.4479447603225708
aF0.555302619934082
aF0.6269998550415039
aF0.5515284538269043
aF0.5499733686447144
aF0.6043742895126343
aF0.4930022656917572
aF0.5446726679801941
aF0.6089367866516113
aF0.5338047742843628
aF0.5244916677474976
aF0.5707456469535828
aF0.6345846056938171
aF0.5227562189102173
aF0.552370548248291
aF0.6185677647590637
aF0.5291262865066528
aF0.5639089345932007
aF0.48432457447052
aF0.5580381155014038
aF0.5763002634048462
aF0.6376349329948425
aF0.6340347528457642
aF0.5438550710678101
aF0.6096562743186951
aF0.5604479312896729
aF0.6579293012619019
aF0.5778477787971497
aF0.582474946975708
aF0.552249550819397
aF0.6103427410125732
aF0.6239974498748779
aF0.49760901927948
aF0.6192222237586975
aF0.6408218145370483
aF0.5651674270629883
aF0.6137502789497375
aF0.5582520961761475
aF0.5365934371948242
aF0.5728026628494263
aF0.6137995719909668
aF0.5838249325752258
aF0.602224588394165
aF0.6584146022796631
aF0.7062174081802368
aF0.6146732568740845
aF0.6524595022201538
aF0.5378727912902832
aF0.60903000831604
aF0.5176531076431274
aF0.6516650319099426
aF0.544969916343689
aF0.6898229718208313
aF0.5971750020980835
aF0.5853233933448792
aF0.6155161261558533
aF0.5274688005447388
aF0.5940829515457153
aF0.6028151512145996
aF0.6075624227523804
aF0.5604659914970398
aF0.5609185695648193
aF0.5987299680709839
aF0.5597162246704102
aF0.517516553401947
aF0.528231143951416
aF0.5350561141967773
aF0.535115122795105
aF0.5382345914840698
aF0.47777432203292847
aF0.5737683773040771
aF0.5080268383026123
aF0.7985430955886841
aF0.6677960753440857
aF0.45759353041648865
aF0.674199640750885
aF0.5718401670455933
aF0.575472354888916
aF0.5104755163192749
aF0.6521396636962891
aF0.6083241105079651
aF0.5818178653717041
aF0.5752965211868286
aF0.5830321311950684
aF0.613167405128479
aF0.5706761479377747
aF0.4982602596282959
aF0.5659785270690918
aF0.556315541267395
aF0.6779099702835083
aF0.5635961294174194
aF0.5371116399765015
aF0.6038913130760193
aF0.6680371761322021
aF0.5808159708976746
aF0.5416383743286133
aF0.6630279421806335
aF0.657650351524353
aF0.4349120855331421
aF0.6302434802055359
aF0.6034199595451355
aF0.5104646682739258
aF0.6130626797676086
aF0.47357016801834106
aF0.5392485857009888
aF0.5446125864982605
aF0.5523990392684937
aF0.5409687161445618
aF0.5904102325439453
aF0.6386679410934448
aF0.5864182710647583
aF0.554624080657959
aF0.6897751092910767
aF0.5328795909881592
aF0.5590823888778687
aF0.5326105356216431
aF0.4636270999908447
aF0.4787808358669281
aF0.6511422991752625
aF0.6072384119033813
aF0.5419728755950928
aF0.49966496229171753
aF0.5327280759811401
aF0.5602923035621643
aF0.5452346801757812
aF0.555679202079773
aF0.45770615339279175
aF0.6365460753440857
aF0.6104354858398438
aF0.51033616065979
aF0.6022006273269653
aF0.70761638879776
aF0.619922399520874
aF0.6072564125061035
aF0.5132466554641724
aF0.5606199502944946
aF0.598793625831604
aF0.6950190663337708
aF0.5368958711624146
aF0.5580446124076843
aF0.5870406031608582
aF0.561460554599762
aF0.46815794706344604
aF0.6033626794815063
aF0.6077401638031006
aF0.534184455871582
aF0.5447056293487549
aF0.6931127905845642
aF0.5237987041473389
aF0.5784843564033508
aF0.6078201532363892
aF0.513312578201294
aF0.5075123310089111
aF0.5614880919456482
aF0.5672558546066284
aF0.5884654521942139
aF0.5126192569732666
aF0.39330145716667175
aF0.5082652568817139
aF0.5238674879074097
aF0.572837233543396
aF0.5712236166000366
aF0.5018045902252197
aF0.45090121030807495
aF0.6087707281112671
aF0.5428833961486816
aF0.5248396992683411
aF0.540606677532196
aF0.48310065269470215
aF0.6148793697357178
aF0.6101484298706055
aF0.5611172914505005
aF0.484124094247818
aF0.6230539083480835
aF0.6608484983444214
aF0.56200110912323
aF0.5289175510406494
aF0.6597955226898193
aF0.610639214515686
aF0.4938744306564331
aF0.5277942419052124
aF0.8017064332962036
aF0.511674702167511
aF0.5026220083236694
aF0.47629955410957336
aF0.6243417263031006
aF0.4798606038093567
aF0.6730920076370239
aF0.48194068670272827
aF0.5107172727584839
aF0.4749237895011902
aF0.5389596819877625
aF0.5290889143943787
aF0.5481091141700745
aF0.5252741575241089
aF0.5360844135284424
aF0.5153254866600037
aF0.5987488031387329
aF0.5075094103813171
aF0.6562512516975403
aF0.6214932203292847
aF0.6216220259666443
aF0.5464842319488525
aF0.5722098350524902
aF0.6301747560501099
aF0.5365723371505737
aF0.582798421382904
aF0.568138837814331
aF0.6532465815544128
aF0.6212443709373474
aF0.5038183927536011
aF0.60565584897995
aF0.6336820721626282
aF0.7051291465759277
aF0.6674044132232666
aF0.5507525205612183
aF0.5237807035446167
aF0.5867986679077148
aF0.5928398370742798
aF0.532261848449707
aF0.5878174901008606
aF0.5649238228797913
aF0.7063945531845093
aF0.50359046459198
aF0.5293295383453369
aF0.6251081228256226
aF0.4877818822860718
aF0.4913679361343384
aF0.49217402935028076
aF0.5719647407531738
aF0.5972877740859985
aF0.6069259643554688
aF0.5620133876800537
aF0.6487128734588623
aF0.5713282823562622
aF0.5588842630386353
aF0.5255327224731445
aF0.5805118083953857
aF0.6340347528457642
aF0.4906025826931
aF0.5096452832221985
aF0.5915277004241943
aF0.6616257429122925
aF0.5686625242233276
aF0.6565132141113281
aF0.6311972737312317
aF0.5806407928466797
aF0.562005877494812
aF0.6214780211448669
aF0.5440130233764648
aF0.6168514490127563
aF0.5635169744491577
aF0.6316107511520386
aF0.5462918877601624
aF0.5716407299041748
aF0.6267415285110474
aF0.5980796813964844
aF0.634945273399353
aF0.4882413148880005
aF0.6008388996124268
aF0.5618849396705627
aF0.5286920070648193
aF0.5096672773361206
aF0.5941828489303589
aF0.7446679472923279
aF0.5438781976699829
aF0.5030148029327393
aF0.508090615272522
aF0.6456893682479858
aF0.5095068216323853
aF0.4839617908000946
aF0.5102897882461548
aF0.5443262457847595
aF0.5227550268173218
aF0.5846154093742371
aF0.502824068069458
aF0.5167182683944702
aF0.611125111579895
aF0.6468625664710999
aF0.628628134727478
aF0.6525651216506958
aF0.7040286064147949
aF0.6463503241539001
aF0.49910908937454224
aF0.57489013671875
aF0.6737573146820068
aF0.5229722261428833
aF0.5637146234512329
aF0.5092874765396118
aF0.6840634346008301
aF0.5237889289855957
aF0.5742402076721191
aF0.6313981413841248
aF0.546059787273407
aF0.5730760097503662
aF0.6405161619186401
aF0.5787434577941895
aF0.5658096075057983
aF0.6360567808151245
aF0.7775276899337769
aF0.5359658002853394
aF0.5425881743431091
aF0.6347489356994629
aF0.5245411396026611
aF0.5515130162239075
aF0.47196805477142334
aF0.5861725211143494
aF0.5492731928825378
aF0.5092024803161621
aF0.5936334133148193
aF0.49663785099983215
aF0.6061073541641235
aF0.5532337427139282
aF0.540839672088623
aF0.5574710369110107
aF0.6249710321426392
aF0.5796846747398376
aF0.4603666365146637
aF0.5976539850234985
aF0.5246438980102539
aF0.54465651512146
aF0.4744873642921448
aF0.5702778697013855
aF0.633135199546814
aF0.48350396752357483
aF0.6192724704742432
aF0.591482400894165
aF0.6113746166229248
aF0.5337585806846619
aF0.5029078722000122
aF0.5727986097335815
aF0.6589094400405884
aF0.5893057584762573
aF0.5676581263542175
aF0.5080811977386475
aF0.5127900838851929
aF0.5127604007720947
aF0.5176162719726562
aF0.6477506160736084
aF0.6536611318588257
aF0.5622843503952026
aF0.463898241519928
aF0.4802755117416382
aF0.49280065298080444
aF0.6998410820960999
aF0.4569815993309021
aF0.6480570435523987
aF0.4947260618209839
aF0.6566201448440552
aF0.6741688847541809
aF0.4108288884162903
aF0.6074274778366089
aF0.6427936553955078
aF0.5996203422546387
aF0.5754503607749939
aF0.6142503023147583
aF0.6096268892288208
aF0.6038498282432556
aF0.485812246799469
aF0.6468729972839355
aF0.6789882779121399
aF0.5754634737968445
aF0.5654017925262451
aF0.5954643487930298
aF0.5696169137954712
aF0.6300050020217896
aF0.50850510597229
aF0.6487191915512085
aF0.5402396321296692
aF0.5501537322998047
aF0.5342733263969421
aF0.5039803385734558
aF0.5424641370773315
aF0.4621675908565521
aF0.6137567758560181
aF0.5607926845550537
aF0.5697134137153625
aF0.535866379737854
aF0.5037699937820435
aF0.5384016633033752
aF0.5967187881469727
aF0.4922237992286682
aF0.5934743881225586
aF0.5141240358352661
aF0.44725847244262695
aF0.519626259803772
aF0.6202241778373718
aF0.5867549777030945
aF0.5102471709251404
aF0.5121645927429199
aF0.6177524328231812
aF0.5410321950912476
aF0.5314688682556152
aF0.6056563854217529
aF0.5364443063735962
aF0.6460280418395996
aF0.5827808380126953
aF0.6549361944198608
aF0.5611989498138428
aF0.545866847038269
aF0.48316699266433716
aF0.605459451675415
aF0.5843013525009155
aF0.6895087957382202
aF0.5898109674453735
aF0.5026354789733887
aF0.6341472864151001
aF0.5352065563201904
aF0.636944055557251
aF0.6275636553764343
aF0.6751141548156738
aF0.5803099870681763
aF0.5754549503326416
aF0.5627211332321167
aF0.6675007343292236
aF0.5565662384033203
aF0.5939732789993286
aF0.6546288728713989
aF0.5736186504364014
aF0.5472614765167236
aF0.5257847309112549
aF0.49364012479782104
aF0.5762627720832825
aF0.47567933797836304
aF0.5600292682647705
aF0.6053158044815063
aF0.48186689615249634
aF0.5799943208694458
aF0.5872282981872559
aF0.555665135383606
aF0.5033359527587891
aF0.5794709324836731
aF0.4928656816482544
aF0.6066957712173462
aF0.49577030539512634
aF0.6951631903648376
aF0.5271456241607666
aF0.6197649240493774
aF0.545738935470581
aF0.5992722511291504
aF0.6664563417434692
aF0.47534769773483276
aF0.6224396824836731
aF0.5257843136787415
aF0.5291913747787476
aF0.6246007680892944
aF0.6324942111968994
aF0.5682952404022217
aF0.607975423336029
aF0.5444726943969727
aF0.5707143545150757
aF0.5507311820983887
aF0.4844951033592224
aF0.6263282299041748
aF0.5168169736862183
aF0.4581446349620819
aF0.5873938798904419
aF0.5858166217803955
aF0.5872669816017151
aF0.6082063317298889
aF0.5913338661193848
aF0.4984830319881439
aF0.5342068076133728
aF0.683232307434082
aF0.6038820743560791
aF0.5216814875602722
aF0.542245626449585
aF0.5111814737319946
aF0.6057044267654419
aF0.5164855718612671
aF0.526192307472229
aF0.6102977991104126
aF0.4938517212867737
aF0.5336490869522095
aF0.6183760166168213
aF0.6347249150276184
aF0.45564576983451843
aF0.597075343132019
aF0.5675479769706726
aF0.5457100868225098
aF0.6037341356277466
aF0.4768325090408325
aF0.5843194723129272
aF0.5678552389144897
aF0.45057016611099243
aF0.5701450705528259
aF0.4917867183685303
aF0.5768410563468933
aF0.5796349048614502
aF0.5781426429748535
aF0.4918369650840759
aF0.536292552947998
aF0.5473976135253906
aF0.5938987135887146
aF0.4809483289718628
aF0.45728012919425964
aF0.5686801671981812
aF0.44701045751571655
aF0.5632827877998352
aF0.6137323975563049
aF0.54893958568573
aF0.5564848184585571
aF0.5716105699539185
aF0.4750862419605255
aF0.6932047605514526
aF0.5884120464324951
aF0.5934629440307617
aF0.5228432416915894
aF0.5384480953216553
aF0.6411969065666199
aF0.5298135876655579
aF0.4784725308418274
aF0.5176864266395569
aF0.5014287829399109
aF0.6846836805343628
aF0.5293200016021729
aF0.6242270469665527
aF0.5365243554115295
aF0.6080061197280884
aF0.5534477233886719
aF0.606133222579956
aF0.6000760197639465
aF0.6602483987808228
aF0.5445070862770081
aF0.4564693868160248
aF0.6048365831375122
aF0.6444673538208008
aF0.5535971522331238
aF0.5264063477516174
aF0.5108953714370728
aF0.5999943017959595
aF0.5579651594161987
aF0.5430616140365601
aF0.5173229575157166
aF0.4949502944946289
aF0.5718536376953125
aF0.597864031791687
aF0.5837363004684448
aF0.4609884023666382
aF0.5009596347808838
aF0.5310359597206116
aF0.458429217338562
aF0.5069426894187927
aF0.5458625555038452
aF0.5686889886856079
aF0.5662042498588562
aF0.6499671936035156
aF0.5622512102127075
aF0.5534981489181519
aF0.589657723903656
aF0.5074595808982849
aF0.4639962911605835
aF0.5479719638824463
aF0.49108779430389404
aF0.47893232107162476
aF0.5874017477035522
aF0.5703563690185547
aF0.5909459590911865
aF0.4878486692905426
aF0.6269534826278687
aF0.5962623953819275
aF0.6298072338104248
aF0.5582931041717529
aF0.4867700934410095
aF0.5198826193809509
aF0.6885064840316772
aF0.5544891357421875
aF0.577560305595398
aF0.6078135967254639
aF0.5756635665893555
aF0.5296661853790283
aF0.5242282152175903
aF0.6257609128952026
aF0.5206793546676636
aF0.5058680772781372
aF0.4777093529701233
aF0.43715807795524597
aF0.5813164710998535
aF0.5163571834564209
aF0.609512448310852
aF0.5979213714599609
aF0.5257008671760559
aF0.5327978134155273
aF0.5374468564987183
aF0.5648701190948486
aF0.6824067831039429
aF0.6181893348693848
aF0.5687874555587769
aF0.5341892242431641
aF0.6368448138237
aF0.5278557538986206
aF0.5988751649856567
aF0.5981947183609009
aF0.578032374382019
aF0.5547971725463867
aF0.4758613109588623
aF0.5306061506271362
aF0.5274167060852051
aF0.5586388111114502
aF0.5963622331619263
aF0.458069384098053
aF0.5810697078704834
aF0.5602990984916687
aF0.5979490876197815
aF0.620119571685791
aF0.49964791536331177
aF0.6331996917724609
aF0.5457630753517151
aF0.6017265319824219
aF0.5634218454360962
aF0.5825382471084595
aF0.5058090686798096
aF0.6819051504135132
aF0.5514505505561829
aF0.6086628437042236
aF0.7064387798309326
aF0.5143466591835022
aF0.5437064170837402
aF0.4772031009197235
aF0.5408614873886108
aF0.6005140542984009
aF0.5011965036392212
aF0.6447630524635315
aF0.4732878804206848
aF0.5316009521484375
aF0.5333340167999268
aF0.5735246539115906
aF0.5659078359603882
aF0.626689076423645
aF0.532010555267334
aF0.5112614631652832
aF0.5333849191665649
aF0.5357120037078857
aF0.6011975407600403
aF0.6834357380867004
aF0.5480632781982422
aF0.5372908115386963
aF0.643944263458252
aF0.5168600082397461
aF0.4383106231689453
aF0.664373517036438
aF0.49362021684646606
aF0.44184449315071106
aF0.5264376401901245
aF0.46487271785736084
aF0.5586332082748413
aF0.5724606513977051
aF0.5326660871505737
aF0.6262669563293457
aF0.6026406288146973
aF0.625942051410675
asVcheckpoint/checkpoint_train_loss
p50
(lp51
F3.572321653366089
aF1.9644898176193237
aF1.6609396934509277
aF1.564328670501709
aF1.3873997926712036
aF1.4036637544631958
aF1.19429612159729
aF1.1828173398971558
aF1.1041560173034668
aF1.1028867959976196
aF1.049180269241333
aF1.0109388828277588
aF0.9751125574111938
aF0.9700868725776672
aF0.9062104225158691
aF0.8725236058235168
aF0.837273895740509
aF0.850965142250061
aF0.8661891222000122
aF0.802705705165863
aF0.8142794370651245
aF0.7926871180534363
aF0.8167180418968201
aF0.7995942234992981
aF0.7850597500801086
aF0.7647212743759155
aF0.7179335355758667
aF0.7520939111709595
aF0.779393196105957
aF0.7648347616195679
aF0.7104400992393494
aF0.7007802724838257
aF0.6757981777191162
aF0.691299557685852
aF0.702771782875061
aF0.7104484438896179
aF0.702244222164154
aF0.7177368402481079
aF0.6909734606742859
aF0.6915658116340637
aF0.6927618980407715
aF0.6992155909538269
aF0.6473551988601685
aF0.664061963558197
aF0.6615807414054871
aF0.6723045110702515
aF0.6568044424057007
aF0.6460738182067871
aF0.6315552592277527
aF0.6312562227249146
aF0.6342495083808899
aF0.6357848048210144
aF0.6129517555236816
aF0.6294155716896057
aF0.623892068862915
aF0.6010989546775818
aF0.609018862247467
aF0.6164261102676392
aF0.6326211094856262
aF0.5964592099189758
aF0.6077629923820496
aF0.5869100093841553
aF0.6205711364746094
aF0.6080192923545837
aF0.6022726893424988
aF0.6271951794624329
aF0.5991566181182861
aF0.6013737916946411
aF0.5950097441673279
aF0.5823978185653687
aF0.6039431691169739
aF0.579474151134491
aF0.5713271498680115
aF0.5720531344413757
aF0.5847595930099487
aF0.5741101503372192
aF0.5918796062469482
aF0.5460567474365234
aF0.5619020462036133
aF0.5672221183776855
aF0.582526445388794
aF0.5650166869163513
aF0.5632305145263672
aF0.5808519124984741
aF0.6264246106147766
aF0.5680967569351196
aF0.5695029497146606
aF0.5565484166145325
aF0.5878018736839294
aF0.5633965134620667
aF0.5623369812965393
aF0.5760083794593811
aF0.5536390542984009
aF0.5723909139633179
aF0.5432195663452148
aF0.548076868057251
aF0.5567881464958191
aF0.5501383543014526
aF0.5378319621086121
aF0.5514287948608398
aF0.5678950548171997
asVhyperparams/beta1
p52
(lp53
F0.8999999761581421
aF0.8999999761581421
aF0.8999999761581421
aF0.8999999761581421
aF0.8999999761581421
aF0.8999999761581421
aF0.8999999761581421
aF0.8999999761581421
aF0.8999999761581421
aF0.8999999761581421
aF0.8999999761581421
aF0.8999999761581421
aF0.8999999761581421
aF0.8999999761581421
aF0.8999999761581421
aF0.8999999761581421
aF0.8999999761581421
aF0.8999999761581421
aF0.8999999761581421
aF0.8999999761581421
aF0.8999999761581421
aF0.8999999761581421
aF0.8999999761581421
aF0.8999999761581421
aF0.8999999761581421
aF0.8999999761581421
aF0.8999999761581421
aF0.8999999761581421
aF0.8999999761581421
aF0.8999999761581421
aF0.8999999761581421
aF0.8999999761581421
aF0.8999999761581421
aF0.8999999761581421
aF0.8999999761581421
aF0.8999999761581421
aF0.8999999761581421
aF0.8999999761581421
aF0.8999999761581421
aF0.8999999761581421
aF0.8999999761581421
aF0.8999999761581421
aF0.8999999761581421
aF0.8999999761581421
aF0.8999999761581421
aF0.8999999761581421
aF0.8999999761581421
aF0.8999999761581421
aF0.8999999761581421
aF0.8999999761581421
aF0.8999999761581421
aF0.8999999761581421
aF0.8999999761581421
aF0.8999999761581421
aF0.8999999761581421
aF0.8999999761581421
aF0.8999999761581421
aF0.8999999761581421
aF0.8999999761581421
aF0.8999999761581421
aF0.8999999761581421
aF0.8999999761581421
aF0.8999999761581421
aF0.8999999761581421
aF0.8999999761581421
aF0.8999999761581421
aF0.8999999761581421
aF0.8999999761581421
aF0.8999999761581421
aF0.8999999761581421
aF0.8999999761581421
aF0.8999999761581421
aF0.8999999761581421
aF0.8999999761581421
aF0.8999999761581421
aF0.8999999761581421
aF0.8999999761581421
aF0.8999999761581421
aF0.8999999761581421
aF0.8999999761581421
aF0.8999999761581421
aF0.8999999761581421
aF0.8999999761581421
aF0.8999999761581421
aF0.8999999761581421
aF0.8999999761581421
aF0.8999999761581421
aF0.8999999761581421
aF0.8999999761581421
aF0.8999999761581421
aF0.8999999761581421
aF0.8999999761581421
aF0.8999999761581421
aF0.8999999761581421
aF0.8999999761581421
aF0.8999999761581421
aF0.8999999761581421
aF0.8999999761581421
aF0.8999999761581421
aF0.8999999761581421
aF0.8999999761581421
asVcheckpoint/checkpoint_test_loss
p54
(lp55
F3.5860044956207275
aF1.9925283193588257
aF1.6815158128738403
aF1.5494892597198486
aF1.44219970703125
aF1.475021481513977
aF1.1972490549087524
aF1.2146871089935303
aF1.0938358306884766
aF1.065894365310669
aF1.0460805892944336
aF1.002819299697876
aF1.0000189542770386
aF0.9900200366973877
aF0.9346520304679871
aF0.9155398607254028
aF0.8828396797180176
aF0.8784590363502502
aF0.8912985324859619
aF0.8661157488822937
aF0.8708895444869995
aF0.8864867687225342
aF0.8563420176506042
aF0.8392314314842224
aF0.8125748038291931
aF0.8470447063446045
aF0.7951927781105042
aF0.7986900806427002
aF0.8425996899604797
aF0.8318347930908203
aF0.7954958081245422
aF0.7844958305358887
aF0.7934204936027527
aF0.8092063069343567
aF0.7807028889656067
aF0.7940590977668762
aF0.8020665645599365
aF0.7850567698478699
aF0.7876062989234924
aF0.7746215462684631
aF0.7752451300621033
aF0.7981696724891663
aF0.7575178146362305
aF0.7733650207519531
aF0.7701081037521362
aF0.7593684792518616
aF0.7750944495201111
aF0.7795828580856323
aF0.7724484205245972
aF0.7496771812438965
aF0.7479904890060425
aF0.7609390020370483
aF0.7300930023193359
aF0.7860938310623169
aF0.744912326335907
aF0.7419994473457336
aF0.7370736002922058
aF0.7466378211975098
aF0.7605974078178406
aF0.7516633868217468
aF0.7762911319732666
aF0.7440251708030701
aF0.7546438574790955
aF0.7421790957450867
aF0.7380566000938416
aF0.7536399960517883
aF0.7352465987205505
aF0.7474861741065979
aF0.7573236227035522
aF0.7595695853233337
aF0.7369208335876465
aF0.748617947101593
aF0.7280955910682678
aF0.7464536428451538
aF0.7438315749168396
aF0.7482981085777283
aF0.7675929665565491
aF0.7397661805152893
aF0.7513853311538696
aF0.748304009437561
aF0.7660320401191711
aF0.7688978910446167
aF0.7408331632614136
aF0.7450041174888611
aF0.8171800971031189
aF0.7469000220298767
aF0.7383718490600586
aF0.7363634705543518
aF0.763511061668396
aF0.7432010173797607
aF0.7624070644378662
aF0.7733435034751892
aF0.7619722485542297
aF0.7932313084602356
aF0.7251032590866089
aF0.741530179977417
aF0.7464849948883057
aF0.7467182278633118
aF0.7424865365028381
aF0.7722944617271423
aF0.7768474817276001
asVtime/convergence_iterations
p56
(lp57
F0.0
aF0.0
aF0.0
aF0.0
aF0.0
aF0.0
aF0.0
aF0.0
aF0.0
aF0.0
aF0.0
aF0.0
aF0.0
aF0.0
aF0.0
aF0.0
aF0.0
aF0.0
aF0.0
aF0.0
aF0.0
aF0.0
aF0.0
aF0.0
aF0.0
aF0.0
aF0.0
aF0.0
aF0.0
aF0.0
aF0.0
aF0.0
aF0.0
aF0.0
aF0.0
aF0.0
aF0.0
aF0.0
aF0.0
aF0.0
aF0.0
aF0.0
aF42.0
aF42.0
aF42.0
aF42.0
aF42.0
aF42.0
aF42.0
aF42.0
aF42.0
aF42.0
aF42.0
aF42.0
aF42.0
aF42.0
aF42.0
aF42.0
aF42.0
aF42.0
aF42.0
aF42.0
aF42.0
aF42.0
aF42.0
aF42.0
aF42.0
aF42.0
aF42.0
aF42.0
aF42.0
aF42.0
aF42.0
aF42.0
aF42.0
aF42.0
aF42.0
aF42.0
aF42.0
aF42.0
aF42.0
aF42.0
aF42.0
aF42.0
aF42.0
aF42.0
aF42.0
aF42.0
aF42.0
aF42.0
aF42.0
aF42.0
aF42.0
aF42.0
aF42.0
aF42.0
aF42.0
aF42.0
aF42.0
aF42.0
aF42.0
as.