(dp0
S'checkpoint/checkpoint_steps'
p1
(lp2
I0
aI1
aI2
aI3
aI4
aI5
aI6
aI7
aI8
aI9
aI10
aI11
aI12
aI13
aI14
aI15
aI16
aI17
aI18
aI19
aI20
aI21
aI22
aI23
aI24
aI25
aI26
aI27
aI28
aI29
aI30
aI31
aI32
aI33
aI34
aI35
aI36
aI37
aI38
aI39
aI40
aI41
aI42
aI43
aI44
aI45
aI46
aI47
aI48
aI49
aI50
aI51
aI52
aI53
aI54
aI55
aI56
aI57
aI58
aI59
aI60
aI61
aI62
aI63
aI64
aI65
aI66
aI67
aI68
aI69
aI70
aI71
aI72
aI73
aI74
aI75
aI76
aI77
aI78
aI79
aI80
aI81
aI82
aI83
aI84
aI85
aI86
aI87
aI88
aI89
aI90
aI91
aI92
aI93
aI94
aI95
aI96
aI97
aI98
aI99
aI100
asVcheckpoint/checkpoint_train_acc
p3
(lp4
F0.0
aF0.0
aF0.0
aF0.0
aF0.0
aF0.0
aF0.0
aF0.0
aF0.0
aF0.0
aF0.0
aF0.0
aF0.0
aF0.0
aF0.0
aF0.0
aF0.0
aF0.0
aF0.0
aF0.0
aF0.0
aF0.0
aF0.0
aF0.0
aF0.0
aF0.0
aF0.0
aF0.0
aF0.0
aF0.0
aF0.0
aF0.0
aF0.0
aF0.0
aF0.0
aF0.0
aF0.0
aF0.0
aF0.0
aF0.0
aF0.0
aF0.0
aF0.0
aF0.0
aF0.0
aF0.0
aF0.0
aF0.0
aF0.0
aF0.0
aF0.0
aF0.0
aF0.0
aF0.0
aF0.0
aF0.0
aF0.0
aF0.0
aF0.0
aF0.0
aF0.0
aF0.0
aF0.0
aF0.0
aF0.0
aF0.0
aF0.0
aF0.0
aF0.0
aF0.0
aF0.0
aF0.0
aF0.0
aF0.0
aF0.0
aF0.0
aF0.0
aF0.0
aF0.0
aF0.0
aF0.0
aF0.0
aF0.0
aF0.0
aF0.0
aF0.0
aF0.0
aF0.0
aF0.0
aF0.0
aF0.0
aF0.0
aF0.0
aF0.0
aF0.0
aF0.0
aF0.0
aF0.0
aF0.0
aF0.0
aF0.0
asVtime/percentage_convergence_performance
p5
(lp6
F48.926734924316406
aF10.873250007629395
aF20.194499969482422
aF43.0574951171875
aF10.676947593688965
aF16.04196548461914
aF23.34002685546875
aF8.142475128173828
aF17.322731018066406
aF18.15980339050293
aF10.188858032226562
aF11.021720886230469
aF8.262451171875
aF9.500199317932129
aF9.434487342834473
aF7.267054080963135
aF9.645359992980957
aF5.704402923583984
aF4.434547424316406
aF8.123394012451172
aF4.196641445159912
aF4.125547885894775
aF7.18360710144043
aF3.5334506034851074
aF3.740513563156128
aF5.214066505432129
aF2.0832433700561523
aF2.763800859451294
aF4.210348129272461
aF3.0434887409210205
aF3.1397719383239746
aF2.4076945781707764
aF1.4534459114074707
aF1.6760592460632324
aF2.006516933441162
aF3.006772756576538
aF2.30778169631958
aF0.8581215739250183
aF1.1779216527938843
aF0.7751762270927429
aF1.2138289213180542
aF2.6921610832214355
aF1.510644793510437
aF0.47967299818992615
aF0.7399764060974121
aF0.3272762596607208
aF1.1696456670761108
aF1.9860224723815918
aF0.9976264834403992
aF0.44040244817733765
aF0.29435229301452637
aF0.33828461170196533
aF1.085477590560913
aF1.2045910358428955
aF0.7521049380302429
aF0.352313369512558
aF0.10789962112903595
aF0.5132634043693542
aF0.7884768843650818
aF0.6507492065429688
aF0.6098625063896179
aF0.2815774977207184
aF0.20229606330394745
aF0.5522379279136658
aF0.4688512086868286
aF0.38301050662994385
aF0.4686275124549866
aF0.3276509940624237
aF0.3589523434638977
aF0.43220189213752747
aF0.27995917201042175
aF0.26944631338119507
aF0.3769974112510681
aF0.4208284318447113
aF0.41085097193717957
aF0.30860763788223267
aF0.2042454481124878
aF0.22349193692207336
aF0.35686323046684265
aF0.45513805747032166
aF0.38447293639183044
aF0.25062093138694763
aF0.1872953176498413
aF0.2220655232667923
aF0.3513568043708801
aF0.42792174220085144
aF0.34808966517448425
aF0.2397911250591278
aF0.19926784932613373
aF0.23478013277053833
aF0.33285394310951233
aF0.37999066710472107
aF0.32449522614479065
aF0.25040343403816223
aF0.2155442088842392
aF0.24437116086483002
aF0.3097699284553528
aF0.3362685739994049
aF0.3113650679588318
aF0.26133599877357483
aF0.2292342185974121
asVcheckpoint/checkpoint_test_acc
p7
(lp8
F0.0
aF0.0
aF0.0
aF0.0
aF0.0
aF0.0
aF0.0
aF0.0
aF0.0
aF0.0
aF0.0
aF0.0
aF0.0
aF0.0
aF0.0
aF0.0
aF0.0
aF0.0
aF0.0
aF0.0
aF0.0
aF0.0
aF0.0
aF0.0
aF0.0
aF0.0
aF0.0
aF0.0
aF0.0
aF0.0
aF0.0
aF0.0
aF0.0
aF0.0
aF0.0
aF0.0
aF0.0
aF0.0
aF0.0
aF0.0
aF0.0
aF0.0
aF0.0
aF0.0
aF0.0
aF0.0
aF0.0
aF0.0
aF0.0
aF0.0
aF0.0
aF0.0
aF0.0
aF0.0
aF0.0
aF0.0
aF0.0
aF0.0
aF0.0
aF0.0
aF0.0
aF0.0
aF0.0
aF0.0
aF0.0
aF0.0
aF0.0
aF0.0
aF0.0
aF0.0
aF0.0
aF0.0
aF0.0
aF0.0
aF0.0
aF0.0
aF0.0
aF0.0
aF0.0
aF0.0
aF0.0
aF0.0
aF0.0
aF0.0
aF0.0
aF0.0
aF0.0
aF0.0
aF0.0
aF0.0
aF0.0
aF0.0
aF0.0
aF0.0
aF0.0
aF0.0
aF0.0
aF0.0
aF0.0
aF0.0
aF0.0
asS'training/training_steps'
p9
(lp10
I1
aI11
aI21
aI31
aI41
aI51
aI61
aI71
aI81
aI91
aI101
aI111
aI121
aI131
aI141
aI151
aI161
aI171
aI181
aI191
aI201
aI211
aI221
aI231
aI241
aI251
aI261
aI271
aI281
aI291
aI301
aI311
aI321
aI331
aI341
aI351
aI361
aI371
aI381
aI391
aI401
aI411
aI421
aI431
aI441
aI451
aI461
aI471
aI481
aI491
aI501
aI511
aI521
aI531
aI541
aI551
aI561
aI571
aI581
aI591
aI601
aI611
aI621
aI631
aI641
aI651
aI661
aI671
aI681
aI691
aI701
aI711
aI721
aI731
aI741
aI751
aI761
aI771
aI781
aI791
asVhyperparams/batch_size
p11
(lp12
F128.0
aF128.0
aF128.0
aF128.0
aF128.0
aF128.0
aF128.0
aF128.0
aF128.0
aF128.0
aF128.0
aF128.0
aF128.0
aF128.0
aF128.0
aF128.0
aF128.0
aF128.0
aF128.0
aF128.0
aF128.0
aF128.0
aF128.0
aF128.0
aF128.0
aF128.0
aF128.0
aF128.0
aF128.0
aF128.0
aF128.0
aF128.0
aF128.0
aF128.0
aF128.0
aF128.0
aF128.0
aF128.0
aF128.0
aF128.0
aF128.0
aF128.0
aF128.0
aF128.0
aF128.0
aF128.0
aF128.0
aF128.0
aF128.0
aF128.0
aF128.0
aF128.0
aF128.0
aF128.0
aF128.0
aF128.0
aF128.0
aF128.0
aF128.0
aF128.0
aF128.0
aF128.0
aF128.0
aF128.0
aF128.0
aF128.0
aF128.0
aF128.0
aF128.0
aF128.0
aF128.0
aF128.0
aF128.0
aF128.0
aF128.0
aF128.0
aF128.0
aF128.0
aF128.0
aF128.0
aF128.0
aF128.0
aF128.0
aF128.0
aF128.0
aF128.0
aF128.0
aF128.0
aF128.0
aF128.0
aF128.0
aF128.0
aF128.0
aF128.0
aF128.0
aF128.0
aF128.0
aF128.0
aF128.0
aF128.0
aF128.0
asS'args'
p13
ccopy_reg
_reconstructor
p14
(cargparse
Namespace
p15
c__builtin__
object
p16
Ntp17
Rp18
(dp19
S'wd'
p20
NsS'data_dir'
p21
S'data'
p22
sS'nesterov'
p23
I00
sS'train_log_interval'
p24
I10
sS'nologs'
p25
I00
sS'num_epochs'
p26
I100
sS'lr_sched_epochs'
p27
NsS'saveto'
p28
S'res/benchmark_small_final/'
p29
sS'lr_sched_factors'
p30
NsS'mu'
p31
F0.99
sS'checkpoint_epochs'
p32
I1
sS'print_train_iter'
p33
I00
sS'lr'
p34
F0.0003981072
sS'bs'
p35
I128
sS'pickle'
p36
I01
sS'random_seed'
p37
I50
sS'no_time'
p38
I00
sS'test_problem'
p39
S'quadratic.noisy_quadratic'
p40
sS'run_name'
p41
S'Momentum/'
p42
sbsVtraining/training_loss
p43
(lp44
F422.8768310546875
aF30.70048713684082
aF274.1388244628906
aF122.67594909667969
aF173.36557006835938
aF118.41091918945312
aF87.76128387451172
aF121.8060302734375
aF84.40286254882812
aF80.91124725341797
aF68.89019012451172
aF46.74268341064453
aF43.084617614746094
aF85.61968231201172
aF37.06133270263672
aF32.956851959228516
aF31.71358299255371
aF55.27020263671875
aF47.65843963623047
aF18.72450065612793
aF47.40163040161133
aF21.688077926635742
aF29.960803985595703
aF37.99094772338867
aF29.550125122070312
aF18.32575035095215
aF9.504150390625
aF35.80384826660156
aF24.39554214477539
aF17.736623764038086
aF9.602560997009277
aF27.323741912841797
aF18.50735855102539
aF24.61069679260254
aF15.748723983764648
aF21.039352416992188
aF19.579345703125
aF16.09038543701172
aF23.990140914916992
aF16.42668914794922
aF19.43728256225586
aF7.57364559173584
aF20.949127197265625
aF17.56294822692871
aF16.56420135498047
aF6.64829158782959
aF17.115753173828125
aF16.02096176147461
aF16.852519989013672
aF10.408327102661133
aF15.049797058105469
aF14.834464073181152
aF16.31966781616211
aF13.665289878845215
aF13.949298858642578
aF13.971916198730469
aF16.6016845703125
aF11.446903228759766
aF13.738091468811035
aF13.874069213867188
aF15.886648178100586
aF9.09083366394043
aF12.06818962097168
aF14.57322883605957
aF14.051534652709961
aF8.912364959716797
aF10.94187068939209
aF14.455572128295898
aF13.006841659545898
aF9.85292911529541
aF11.510354995727539
aF14.448652267456055
aF13.278644561767578
aF10.218902587890625
aF12.920374870300293
aF14.89730167388916
aF14.264646530151367
aF9.441263198852539
aF13.456701278686523
aF15.239493370056152
asVcheckpoint/checkpoint_train_loss
p45
(lp46
F351.9623107910156
aF93.33834075927734
aF128.67877197265625
aF266.6136779785156
aF73.17180633544922
aF127.70719146728516
aF180.0746307373047
aF70.44488525390625
aF114.05229949951172
aF116.37151336669922
aF75.02347564697266
aF91.124267578125
aF75.07894134521484
aF76.39337921142578
aF69.36200714111328
aF54.69984436035156
aF73.70201110839844
aF51.913177490234375
aF44.43470764160156
aF67.00993347167969
aF40.82029724121094
aF39.59038162231445
aF58.15675354003906
aF34.076019287109375
aF36.418392181396484
aF48.4544563293457
aF30.192657470703125
aF33.25640106201172
aF38.776206970214844
aF28.65044593811035
aF30.671859741210938
aF30.401531219482422
aF27.36490249633789
aF27.19321632385254
aF24.347597122192383
aF27.3270320892334
aF24.498865127563477
aF20.3817195892334
aF25.887664794921875
aF21.46352195739746
aF18.96977996826172
aF25.091867446899414
aF19.507022857666016
aF18.08706283569336
aF22.75685691833496
aF17.946491241455078
aF18.459060668945312
aF21.207489013671875
aF17.163101196289062
aF17.98790168762207
aF18.9394588470459
aF16.948877334594727
aF18.051359176635742
aF17.593196868896484
aF16.847856521606445
aF17.196542739868164
aF16.303688049316406
aF17.076993942260742
aF16.802518844604492
aF15.718486785888672
aF16.873260498046875
aF16.02618980407715
aF15.456613540649414
aF16.807260513305664
aF15.716161727905273
aF15.352266311645508
aF16.283138275146484
aF15.416781425476074
aF15.457927703857422
aF16.01156997680664
aF15.343454360961914
aF15.318194389343262
aF15.552376747131348
aF15.336441040039062
aF15.37254524230957
aF15.40626049041748
aF15.277786254882812
aF15.151212692260742
aF15.186562538146973
aF15.297579765319824
aF15.183666229248047
aF15.153700828552246
aF15.184551239013672
aF15.014729499816895
aF15.06182861328125
aF15.190438270568848
aF15.060883522033691
aF15.050195693969727
aF15.079524040222168
aF14.963082313537598
aF15.01197338104248
aF15.073944091796875
aF15.002167701721191
aF15.00662612915039
aF14.990594863891602
aF14.955467224121094
aF14.984829902648926
aF14.974126815795898
aF14.981846809387207
aF14.979538917541504
aF14.934412956237793
asVcheckpoint/checkpoint_test_loss
p47
(lp48
F313.620361328125
aF69.6975326538086
aF129.44674682617188
aF275.99853515625
aF68.4392318725586
aF102.82899475097656
aF149.6095733642578
aF52.193267822265625
aF111.03871154785156
aF116.40434265136719
aF65.31057739257812
aF70.64923095703125
aF52.96231460571289
aF60.896278381347656
aF60.47506332397461
aF46.581817626953125
aF61.82675552368164
aF36.565223693847656
aF28.42544937133789
aF52.07095718383789
aF26.90047264099121
aF26.44476318359375
aF46.04692077636719
aF22.649417877197266
aF23.97669219970703
aF33.42216491699219
aF13.35359001159668
aF17.71596336364746
aF26.988330841064453
aF19.50876235961914
aF20.125938415527344
aF15.433321952819824
aF9.316588401794434
aF10.743539810180664
aF12.861773490905762
aF19.273412704467773
aF14.79288101196289
aF5.500559329986572
aF7.550477504730225
aF4.968879699707031
aF7.780643463134766
aF17.256752014160156
aF9.683233261108398
aF3.0747039318084717
aF4.74324893951416
aF2.0978407859802246
aF7.4974284172058105
aF12.730403900146484
aF6.3947858810424805
aF2.822979688644409
aF1.8867981433868408
aF2.1684043407440186
aF6.957911491394043
aF7.721428394317627
aF4.820992469787598
aF2.258328676223755
aF0.6916365623474121
aF3.2900185585021973
aF5.054136753082275
aF4.171302318572998
aF3.9092187881469727
aF1.804911732673645
aF1.2967177629470825
aF3.5398449897766113
aF3.005336284637451
aF2.4550974369049072
aF3.0039024353027344
aF2.100242853164673
aF2.300884485244751
aF2.770414113998413
aF1.7945382595062256
aF1.727150797843933
aF2.416553497314453
aF2.697510242462158
aF2.633554697036743
aF1.9781750440597534
aF1.3092132806777954
aF1.4325833320617676
aF2.2874932289123535
aF2.9174349308013916
aF2.4644715785980225
aF1.6064801216125488
aF1.2005629539489746
aF1.4234399795532227
aF2.252197027206421
aF2.74297833442688
aF2.231254816055298
aF1.537061095237732
aF1.2773069143295288
aF1.5049406290054321
aF2.133593797683716
aF2.4357402324676514
aF2.08001446723938
aF1.605086088180542
aF1.3816384077072144
aF1.5664191246032715
aF1.9856252670288086
aF2.1554815769195557
aF1.9958500862121582
aF1.675163745880127
aF1.4693913459777832
asVhyperparams/momentum
p49
(lp50
F0.9900000095367432
aF0.9900000095367432
aF0.9900000095367432
aF0.9900000095367432
aF0.9900000095367432
aF0.9900000095367432
aF0.9900000095367432
aF0.9900000095367432
aF0.9900000095367432
aF0.9900000095367432
aF0.9900000095367432
aF0.9900000095367432
aF0.9900000095367432
aF0.9900000095367432
aF0.9900000095367432
aF0.9900000095367432
aF0.9900000095367432
aF0.9900000095367432
aF0.9900000095367432
aF0.9900000095367432
aF0.9900000095367432
aF0.9900000095367432
aF0.9900000095367432
aF0.9900000095367432
aF0.9900000095367432
aF0.9900000095367432
aF0.9900000095367432
aF0.9900000095367432
aF0.9900000095367432
aF0.9900000095367432
aF0.9900000095367432
aF0.9900000095367432
aF0.9900000095367432
aF0.9900000095367432
aF0.9900000095367432
aF0.9900000095367432
aF0.9900000095367432
aF0.9900000095367432
aF0.9900000095367432
aF0.9900000095367432
aF0.9900000095367432
aF0.9900000095367432
aF0.9900000095367432
aF0.9900000095367432
aF0.9900000095367432
aF0.9900000095367432
aF0.9900000095367432
aF0.9900000095367432
aF0.9900000095367432
aF0.9900000095367432
aF0.9900000095367432
aF0.9900000095367432
aF0.9900000095367432
aF0.9900000095367432
aF0.9900000095367432
aF0.9900000095367432
aF0.9900000095367432
aF0.9900000095367432
aF0.9900000095367432
aF0.9900000095367432
aF0.9900000095367432
aF0.9900000095367432
aF0.9900000095367432
aF0.9900000095367432
aF0.9900000095367432
aF0.9900000095367432
aF0.9900000095367432
aF0.9900000095367432
aF0.9900000095367432
aF0.9900000095367432
aF0.9900000095367432
aF0.9900000095367432
aF0.9900000095367432
aF0.9900000095367432
aF0.9900000095367432
aF0.9900000095367432
aF0.9900000095367432
aF0.9900000095367432
aF0.9900000095367432
aF0.9900000095367432
aF0.9900000095367432
aF0.9900000095367432
aF0.9900000095367432
aF0.9900000095367432
aF0.9900000095367432
aF0.9900000095367432
aF0.9900000095367432
aF0.9900000095367432
aF0.9900000095367432
aF0.9900000095367432
aF0.9900000095367432
aF0.9900000095367432
aF0.9900000095367432
aF0.9900000095367432
aF0.9900000095367432
aF0.9900000095367432
aF0.9900000095367432
aF0.9900000095367432
aF0.9900000095367432
aF0.9900000095367432
aF0.9900000095367432
asVhyperparams/learning_rate
p51
(lp52
F0.00039810719317756593
aF0.00039810719317756593
aF0.00039810719317756593
aF0.00039810719317756593
aF0.00039810719317756593
aF0.00039810719317756593
aF0.00039810719317756593
aF0.00039810719317756593
aF0.00039810719317756593
aF0.00039810719317756593
aF0.00039810719317756593
aF0.00039810719317756593
aF0.00039810719317756593
aF0.00039810719317756593
aF0.00039810719317756593
aF0.00039810719317756593
aF0.00039810719317756593
aF0.00039810719317756593
aF0.00039810719317756593
aF0.00039810719317756593
aF0.00039810719317756593
aF0.00039810719317756593
aF0.00039810719317756593
aF0.00039810719317756593
aF0.00039810719317756593
aF0.00039810719317756593
aF0.00039810719317756593
aF0.00039810719317756593
aF0.00039810719317756593
aF0.00039810719317756593
aF0.00039810719317756593
aF0.00039810719317756593
aF0.00039810719317756593
aF0.00039810719317756593
aF0.00039810719317756593
aF0.00039810719317756593
aF0.00039810719317756593
aF0.00039810719317756593
aF0.00039810719317756593
aF0.00039810719317756593
aF0.00039810719317756593
aF0.00039810719317756593
aF0.00039810719317756593
aF0.00039810719317756593
aF0.00039810719317756593
aF0.00039810719317756593
aF0.00039810719317756593
aF0.00039810719317756593
aF0.00039810719317756593
aF0.00039810719317756593
aF0.00039810719317756593
aF0.00039810719317756593
aF0.00039810719317756593
aF0.00039810719317756593
aF0.00039810719317756593
aF0.00039810719317756593
aF0.00039810719317756593
aF0.00039810719317756593
aF0.00039810719317756593
aF0.00039810719317756593
aF0.00039810719317756593
aF0.00039810719317756593
aF0.00039810719317756593
aF0.00039810719317756593
aF0.00039810719317756593
aF0.00039810719317756593
aF0.00039810719317756593
aF0.00039810719317756593
aF0.00039810719317756593
aF0.00039810719317756593
aF0.00039810719317756593
aF0.00039810719317756593
aF0.00039810719317756593
aF0.00039810719317756593
aF0.00039810719317756593
aF0.00039810719317756593
aF0.00039810719317756593
aF0.00039810719317756593
aF0.00039810719317756593
aF0.00039810719317756593
aF0.00039810719317756593
aF0.00039810719317756593
aF0.00039810719317756593
aF0.00039810719317756593
aF0.00039810719317756593
aF0.00039810719317756593
aF0.00039810719317756593
aF0.00039810719317756593
aF0.00039810719317756593
aF0.00039810719317756593
aF0.00039810719317756593
aF0.00039810719317756593
aF0.00039810719317756593
aF0.00039810719317756593
aF0.00039810719317756593
aF0.00039810719317756593
aF0.00039810719317756593
aF0.00039810719317756593
aF0.00039810719317756593
aF0.00039810719317756593
aF0.00039810719317756593
asVtime/convergence_iterations
p53
(lp54
F0.0
aF0.0
aF0.0
aF0.0
aF0.0
aF0.0
aF0.0
aF0.0
aF0.0
aF0.0
aF0.0
aF0.0
aF0.0
aF0.0
aF0.0
aF0.0
aF0.0
aF0.0
aF0.0
aF0.0
aF0.0
aF0.0
aF0.0
aF0.0
aF0.0
aF0.0
aF0.0
aF0.0
aF0.0
aF0.0
aF0.0
aF0.0
aF0.0
aF0.0
aF0.0
aF0.0
aF0.0
aF37.0
aF37.0
aF37.0
aF37.0
aF37.0
aF37.0
aF37.0
aF37.0
aF37.0
aF37.0
aF37.0
aF37.0
aF37.0
aF37.0
aF37.0
aF37.0
aF37.0
aF37.0
aF37.0
aF37.0
aF37.0
aF37.0
aF37.0
aF37.0
aF37.0
aF37.0
aF37.0
aF37.0
aF37.0
aF37.0
aF37.0
aF37.0
aF37.0
aF37.0
aF37.0
aF37.0
aF37.0
aF37.0
aF37.0
aF37.0
aF37.0
aF37.0
aF37.0
aF37.0
aF37.0
aF37.0
aF37.0
aF37.0
aF37.0
aF37.0
aF37.0
aF37.0
aF37.0
aF37.0
aF37.0
aF37.0
aF37.0
aF37.0
aF37.0
aF37.0
aF37.0
aF37.0
aF37.0
aF37.0
as.