(dp0
S'checkpoint/checkpoint_steps'
p1
(lp2
I0
aI1
aI2
aI3
aI4
aI5
aI6
aI7
aI8
aI9
aI10
aI11
aI12
aI13
aI14
aI15
aI16
aI17
aI18
aI19
aI20
aI21
aI22
aI23
aI24
aI25
aI26
aI27
aI28
aI29
aI30
aI31
aI32
aI33
aI34
aI35
aI36
aI37
aI38
aI39
aI40
aI41
aI42
aI43
aI44
aI45
aI46
aI47
aI48
aI49
aI50
aI51
aI52
aI53
aI54
aI55
aI56
aI57
aI58
aI59
aI60
aI61
aI62
aI63
aI64
aI65
aI66
aI67
aI68
aI69
aI70
aI71
aI72
aI73
aI74
aI75
aI76
aI77
aI78
aI79
aI80
aI81
aI82
aI83
aI84
aI85
aI86
aI87
aI88
aI89
aI90
aI91
aI92
aI93
aI94
aI95
aI96
aI97
aI98
aI99
aI100
asVcheckpoint/checkpoint_train_acc
p3
(lp4
F0.0
aF0.0
aF0.0
aF0.0
aF0.0
aF0.0
aF0.0
aF0.0
aF0.0
aF0.0
aF0.0
aF0.0
aF0.0
aF0.0
aF0.0
aF0.0
aF0.0
aF0.0
aF0.0
aF0.0
aF0.0
aF0.0
aF0.0
aF0.0
aF0.0
aF0.0
aF0.0
aF0.0
aF0.0
aF0.0
aF0.0
aF0.0
aF0.0
aF0.0
aF0.0
aF0.0
aF0.0
aF0.0
aF0.0
aF0.0
aF0.0
aF0.0
aF0.0
aF0.0
aF0.0
aF0.0
aF0.0
aF0.0
aF0.0
aF0.0
aF0.0
aF0.0
aF0.0
aF0.0
aF0.0
aF0.0
aF0.0
aF0.0
aF0.0
aF0.0
aF0.0
aF0.0
aF0.0
aF0.0
aF0.0
aF0.0
aF0.0
aF0.0
aF0.0
aF0.0
aF0.0
aF0.0
aF0.0
aF0.0
aF0.0
aF0.0
aF0.0
aF0.0
aF0.0
aF0.0
aF0.0
aF0.0
aF0.0
aF0.0
aF0.0
aF0.0
aF0.0
aF0.0
aF0.0
aF0.0
aF0.0
aF0.0
aF0.0
aF0.0
aF0.0
aF0.0
aF0.0
aF0.0
aF0.0
aF0.0
aF0.0
asVtime/percentage_convergence_performance
p5
(lp6
F43.43498229980469
aF12.246685981750488
aF12.91186237335205
aF37.9744758605957
aF17.676071166992188
aF9.099925994873047
aF19.474979400634766
aF13.442805290222168
aF8.405531883239746
aF14.275967597961426
aF15.63058853149414
aF8.662153244018555
aF6.943103313446045
aF8.916172981262207
aF6.658855438232422
aF6.10943603515625
aF8.11283016204834
aF7.989950180053711
aF5.414278984069824
aF4.32560920715332
aF4.895096302032471
aF3.985595703125
aF4.221339702606201
aF5.114753723144531
aF4.5875043869018555
aF3.6748955249786377
aF2.3418383598327637
aF2.533931016921997
aF2.963460922241211
aF2.374889850616455
aF3.0546460151672363
aF2.887437105178833
aF1.68771493434906
aF1.4889832735061646
aF1.5378198623657227
aF1.6909594535827637
aF1.5615930557250977
aF1.6459159851074219
aF1.9449175596237183
aF1.139884352684021
aF0.7359139323234558
aF1.1684328317642212
aF0.9918491840362549
aF0.9326410889625549
aF1.453543782234192
aF1.3168748617172241
aF0.5280721187591553
aF0.5141156911849976
aF0.8416246771812439
aF0.6647175550460815
aF0.863831639289856
aF1.0716133117675781
aF0.5819764137268066
aF0.3023120164871216
aF0.5479084253311157
aF0.6898202896118164
aF0.54618901014328
aF0.5619633197784424
aF0.5967986583709717
aF0.34485241770744324
aF0.4372381865978241
aF0.6568266749382019
aF0.40530943870544434
aF0.28401243686676025
aF0.4020693898200989
aF0.41497185826301575
aF0.4991395175457001
aF0.5410012602806091
aF0.3573852479457855
aF0.1915532797574997
aF0.23292939364910126
aF0.3924856185913086
aF0.5113974213600159
aF0.48855310678482056
aF0.33003532886505127
aF0.18981727957725525
aF0.18979215621948242
aF0.3121792674064636
aF0.44407832622528076
aF0.44950446486473083
aF0.3435460031032562
aF0.235403910279274
aF0.20333066582679749
aF0.2636733651161194
aF0.34092196822166443
aF0.3861989378929138
aF0.37093788385391235
aF0.2916566729545593
aF0.24173256754875183
aF0.2427998036146164
aF0.26433929800987244
aF0.320864200592041
aF0.36260586977005005
aF0.3391451835632324
aF0.2831217348575592
aF0.24019847810268402
aF0.23509114980697632
aF0.27271556854248047
aF0.3298858404159546
aF0.35098689794540405
aF0.311713844537735
asVcheckpoint/checkpoint_test_acc
p7
(lp8
F0.0
aF0.0
aF0.0
aF0.0
aF0.0
aF0.0
aF0.0
aF0.0
aF0.0
aF0.0
aF0.0
aF0.0
aF0.0
aF0.0
aF0.0
aF0.0
aF0.0
aF0.0
aF0.0
aF0.0
aF0.0
aF0.0
aF0.0
aF0.0
aF0.0
aF0.0
aF0.0
aF0.0
aF0.0
aF0.0
aF0.0
aF0.0
aF0.0
aF0.0
aF0.0
aF0.0
aF0.0
aF0.0
aF0.0
aF0.0
aF0.0
aF0.0
aF0.0
aF0.0
aF0.0
aF0.0
aF0.0
aF0.0
aF0.0
aF0.0
aF0.0
aF0.0
aF0.0
aF0.0
aF0.0
aF0.0
aF0.0
aF0.0
aF0.0
aF0.0
aF0.0
aF0.0
aF0.0
aF0.0
aF0.0
aF0.0
aF0.0
aF0.0
aF0.0
aF0.0
aF0.0
aF0.0
aF0.0
aF0.0
aF0.0
aF0.0
aF0.0
aF0.0
aF0.0
aF0.0
aF0.0
aF0.0
aF0.0
aF0.0
aF0.0
aF0.0
aF0.0
aF0.0
aF0.0
aF0.0
aF0.0
aF0.0
aF0.0
aF0.0
aF0.0
aF0.0
aF0.0
aF0.0
aF0.0
aF0.0
aF0.0
asS'training/training_steps'
p9
(lp10
I1
aI11
aI21
aI31
aI41
aI51
aI61
aI71
aI81
aI91
aI101
aI111
aI121
aI131
aI141
aI151
aI161
aI171
aI181
aI191
aI201
aI211
aI221
aI231
aI241
aI251
aI261
aI271
aI281
aI291
aI301
aI311
aI321
aI331
aI341
aI351
aI361
aI371
aI381
aI391
aI401
aI411
aI421
aI431
aI441
aI451
aI461
aI471
aI481
aI491
aI501
aI511
aI521
aI531
aI541
aI551
aI561
aI571
aI581
aI591
aI601
aI611
aI621
aI631
aI641
aI651
aI661
aI671
aI681
aI691
aI701
aI711
aI721
aI731
aI741
aI751
aI761
aI771
aI781
aI791
asVhyperparams/batch_size
p11
(lp12
F128.0
aF128.0
aF128.0
aF128.0
aF128.0
aF128.0
aF128.0
aF128.0
aF128.0
aF128.0
aF128.0
aF128.0
aF128.0
aF128.0
aF128.0
aF128.0
aF128.0
aF128.0
aF128.0
aF128.0
aF128.0
aF128.0
aF128.0
aF128.0
aF128.0
aF128.0
aF128.0
aF128.0
aF128.0
aF128.0
aF128.0
aF128.0
aF128.0
aF128.0
aF128.0
aF128.0
aF128.0
aF128.0
aF128.0
aF128.0
aF128.0
aF128.0
aF128.0
aF128.0
aF128.0
aF128.0
aF128.0
aF128.0
aF128.0
aF128.0
aF128.0
aF128.0
aF128.0
aF128.0
aF128.0
aF128.0
aF128.0
aF128.0
aF128.0
aF128.0
aF128.0
aF128.0
aF128.0
aF128.0
aF128.0
aF128.0
aF128.0
aF128.0
aF128.0
aF128.0
aF128.0
aF128.0
aF128.0
aF128.0
aF128.0
aF128.0
aF128.0
aF128.0
aF128.0
aF128.0
aF128.0
aF128.0
aF128.0
aF128.0
aF128.0
aF128.0
aF128.0
aF128.0
aF128.0
aF128.0
aF128.0
aF128.0
aF128.0
aF128.0
aF128.0
aF128.0
aF128.0
aF128.0
aF128.0
aF128.0
aF128.0
asS'args'
p13
ccopy_reg
_reconstructor
p14
(cargparse
Namespace
p15
c__builtin__
object
p16
Ntp17
Rp18
(dp19
S'wd'
p20
NsS'data_dir'
p21
S'data'
p22
sS'nesterov'
p23
I00
sS'train_log_interval'
p24
I10
sS'nologs'
p25
I00
sS'num_epochs'
p26
I100
sS'lr_sched_epochs'
p27
NsS'saveto'
p28
S'res/benchmark_small_final/'
p29
sS'lr_sched_factors'
p30
NsS'mu'
p31
F0.99
sS'checkpoint_epochs'
p32
I1
sS'print_train_iter'
p33
I00
sS'lr'
p34
F0.0003981072
sS'bs'
p35
I128
sS'pickle'
p36
I01
sS'random_seed'
p37
I49
sS'no_time'
p38
I00
sS'test_problem'
p39
S'quadratic.noisy_quadratic'
p40
sS'run_name'
p41
S'Momentum/'
p42
sbsVtraining/training_loss
p43
(lp44
F274.1773681640625
aF65.73971557617188
aF199.09039306640625
aF139.03302001953125
aF66.72114562988281
aF174.76734924316406
aF75.18160247802734
aF81.60694885253906
aF114.32051086425781
aF87.41888427734375
aF72.54534912109375
aF72.65849304199219
aF40.668724060058594
aF80.871826171875
aF66.42753601074219
aF38.291358947753906
aF25.51553726196289
aF45.8636360168457
aF60.52314758300781
aF30.637285232543945
aF27.47556495666504
aF33.197906494140625
aF51.646575927734375
aF27.8731632232666
aF35.24546813964844
aF36.71778869628906
aF36.16817092895508
aF24.320741653442383
aF27.511390686035156
aF33.7933349609375
aF29.31032371520996
aF10.424180030822754
aF16.531272888183594
aF32.080413818359375
aF19.603206634521484
aF7.52479362487793
aF18.228116989135742
aF23.345699310302734
aF23.203502655029297
aF13.401182174682617
aF17.21307373046875
aF26.176677703857422
aF26.09812355041504
aF15.433372497558594
aF18.248746871948242
aF27.31184959411621
aF28.16790771484375
aF11.401368141174316
aF16.45516014099121
aF31.438926696777344
aF21.939983367919922
aF10.851839065551758
aF14.359231948852539
aF29.93602752685547
aF18.94738006591797
aF11.529988288879395
aF11.950429916381836
aF26.680912017822266
aF18.48443031311035
aF11.166964530944824
aF12.406001091003418
aF23.561281204223633
aF19.510631561279297
aF10.22231388092041
aF14.663191795349121
aF22.782302856445312
aF20.30364227294922
aF10.966598510742188
aF15.104085922241211
aF23.35110855102539
aF20.884201049804688
aF11.95405387878418
aF13.885149002075195
aF23.614765167236328
aF21.102758407592773
aF11.397701263427734
aF13.89171314239502
aF23.675283432006836
aF20.45684051513672
aF10.870711326599121
asVcheckpoint/checkpoint_train_loss
p45
(lp46
F315.2738952636719
aF106.21273803710938
aF92.61212921142578
aF242.37071228027344
aF116.83431243896484
aF76.62310791015625
aF154.77696228027344
aF115.39004516601562
aF72.13263702392578
aF98.86837768554688
aF105.54774475097656
aF68.02251434326172
aF66.18494415283203
aF82.61873626708984
aF64.69744873046875
aF54.449851989746094
aF62.78236389160156
aF62.436641693115234
aF50.13520050048828
aF47.73631286621094
aF53.258567810058594
aF45.589561462402344
aF43.051822662353516
aF45.53474426269531
aF42.166908264160156
aF39.539405822753906
aF34.7697639465332
aF37.2130126953125
aF37.741661071777344
aF30.401729583740234
aF32.91945266723633
aF33.020240783691406
aF28.12078285217285
aF28.780988693237305
aF28.865657806396484
aF28.085487365722656
aF25.516433715820312
aF25.43799591064453
aF27.9831485748291
aF24.15070343017578
aF22.772258758544922
aF25.846698760986328
aF23.77157211303711
aF21.77760887145996
aF24.128402709960938
aF23.843631744384766
aF20.5247859954834
aF21.727087020874023
aF23.436927795410156
aF20.63775062561035
aF20.631542205810547
aF22.25808334350586
aF20.526437759399414
aF19.735410690307617
aF21.005126953125
aF20.872634887695312
aF19.393320083618164
aF19.87790298461914
aF20.751689910888672
aF19.212249755859375
aF19.326393127441406
aF20.45621109008789
aF19.222354888916016
aF19.032623291015625
aF19.794296264648438
aF19.1707706451416
aF19.047775268554688
aF19.487747192382812
aF19.217864990234375
aF18.87734603881836
aF18.922277450561523
aF18.99152183532715
aF19.013978958129883
aF19.047931671142578
aF18.918066024780273
aF18.74889373779297
aF18.677810668945312
aF18.73189926147461
aF18.891523361206055
aF18.859790802001953
aF18.707304000854492
aF18.624269485473633
aF18.613677978515625
aF18.685585021972656
aF18.667953491210938
aF18.661577224731445
aF18.677589416503906
aF18.560523986816406
aF18.58839988708496
aF18.64371109008789
aF18.51764678955078
aF18.523845672607422
aF18.61988067626953
aF18.60418128967285
aF18.565879821777344
aF18.53731918334961
aF18.485145568847656
aF18.468069076538086
aF18.55550193786621
aF18.617431640625
aF18.547683715820312
asVcheckpoint/checkpoint_test_loss
p47
(lp48
F278.4182434082031
aF78.50125885009766
aF82.7650375366211
aF243.41639709472656
aF113.30361938476562
aF58.330528259277344
aF124.8346176147461
aF86.16838073730469
aF53.879459381103516
aF91.50894927978516
aF100.19207000732422
aF55.5244026184082
aF44.50529098510742
aF57.152671813964844
aF42.68326187133789
aF39.16148376464844
aF52.00324249267578
aF51.215579986572266
aF34.705528259277344
aF27.727153778076172
aF31.377567291259766
aF25.54766845703125
aF27.058788299560547
aF32.78557205200195
aF29.405902862548828
aF23.556079864501953
aF15.011183738708496
aF16.24249839782715
aF18.995784759521484
aF15.223044395446777
aF19.580280303955078
aF18.508472442626953
aF10.818252563476562
aF9.54438304901123
aF9.857425689697266
aF10.83905029296875
aF10.009811401367188
aF10.550321578979492
aF12.46692180633545
aF7.306658744812012
aF4.717208385467529
aF7.489654541015625
aF6.357753276824951
aF5.978229522705078
aF9.317215919494629
aF8.441167831420898
aF3.3849422931671143
aF3.2954816818237305
aF5.3948140144348145
aF4.260839462280273
aF5.537160873413086
aF6.869041442871094
aF3.730468988418579
aF1.9378200769424438
aF3.5120928287506104
aF4.421748161315918
aF3.5010714530944824
aF3.602185010910034
aF3.825479507446289
aF2.2105040550231934
aF2.802696704864502
aF4.210258960723877
aF2.5980334281921387
aF1.8205198049545288
aF2.5772647857666016
aF2.6599695682525635
aF3.199484348297119
aF3.467818021774292
aF2.290839433670044
aF1.2278565168380737
aF1.4930773973464966
aF2.5158329010009766
aF3.278057336807251
aF3.1316254138946533
aF2.1155264377593994
aF1.2167288064956665
aF1.2165677547454834
aF2.0010690689086914
aF2.8465421199798584
aF2.8813235759735107
aF2.20212984085083
aF1.5089390277862549
aF1.3033496141433716
aF1.6901463270187378
aF2.185309886932373
aF2.4755351543426514
aF2.377711772918701
aF1.8695193529129028
aF1.5495057106018066
aF1.5563467741012573
aF1.6944149732589722
aF2.056739568710327
aF2.32430362701416
aF2.1739206314086914
aF1.8148102760314941
aF1.5396722555160522
aF1.5069342851638794
aF1.748106837272644
aF2.1145682334899902
aF2.249825954437256
aF1.9980857372283936
asVhyperparams/momentum
p49
(lp50
F0.9900000095367432
aF0.9900000095367432
aF0.9900000095367432
aF0.9900000095367432
aF0.9900000095367432
aF0.9900000095367432
aF0.9900000095367432
aF0.9900000095367432
aF0.9900000095367432
aF0.9900000095367432
aF0.9900000095367432
aF0.9900000095367432
aF0.9900000095367432
aF0.9900000095367432
aF0.9900000095367432
aF0.9900000095367432
aF0.9900000095367432
aF0.9900000095367432
aF0.9900000095367432
aF0.9900000095367432
aF0.9900000095367432
aF0.9900000095367432
aF0.9900000095367432
aF0.9900000095367432
aF0.9900000095367432
aF0.9900000095367432
aF0.9900000095367432
aF0.9900000095367432
aF0.9900000095367432
aF0.9900000095367432
aF0.9900000095367432
aF0.9900000095367432
aF0.9900000095367432
aF0.9900000095367432
aF0.9900000095367432
aF0.9900000095367432
aF0.9900000095367432
aF0.9900000095367432
aF0.9900000095367432
aF0.9900000095367432
aF0.9900000095367432
aF0.9900000095367432
aF0.9900000095367432
aF0.9900000095367432
aF0.9900000095367432
aF0.9900000095367432
aF0.9900000095367432
aF0.9900000095367432
aF0.9900000095367432
aF0.9900000095367432
aF0.9900000095367432
aF0.9900000095367432
aF0.9900000095367432
aF0.9900000095367432
aF0.9900000095367432
aF0.9900000095367432
aF0.9900000095367432
aF0.9900000095367432
aF0.9900000095367432
aF0.9900000095367432
aF0.9900000095367432
aF0.9900000095367432
aF0.9900000095367432
aF0.9900000095367432
aF0.9900000095367432
aF0.9900000095367432
aF0.9900000095367432
aF0.9900000095367432
aF0.9900000095367432
aF0.9900000095367432
aF0.9900000095367432
aF0.9900000095367432
aF0.9900000095367432
aF0.9900000095367432
aF0.9900000095367432
aF0.9900000095367432
aF0.9900000095367432
aF0.9900000095367432
aF0.9900000095367432
aF0.9900000095367432
aF0.9900000095367432
aF0.9900000095367432
aF0.9900000095367432
aF0.9900000095367432
aF0.9900000095367432
aF0.9900000095367432
aF0.9900000095367432
aF0.9900000095367432
aF0.9900000095367432
aF0.9900000095367432
aF0.9900000095367432
aF0.9900000095367432
aF0.9900000095367432
aF0.9900000095367432
aF0.9900000095367432
aF0.9900000095367432
aF0.9900000095367432
aF0.9900000095367432
aF0.9900000095367432
aF0.9900000095367432
aF0.9900000095367432
asVhyperparams/learning_rate
p51
(lp52
F0.00039810719317756593
aF0.00039810719317756593
aF0.00039810719317756593
aF0.00039810719317756593
aF0.00039810719317756593
aF0.00039810719317756593
aF0.00039810719317756593
aF0.00039810719317756593
aF0.00039810719317756593
aF0.00039810719317756593
aF0.00039810719317756593
aF0.00039810719317756593
aF0.00039810719317756593
aF0.00039810719317756593
aF0.00039810719317756593
aF0.00039810719317756593
aF0.00039810719317756593
aF0.00039810719317756593
aF0.00039810719317756593
aF0.00039810719317756593
aF0.00039810719317756593
aF0.00039810719317756593
aF0.00039810719317756593
aF0.00039810719317756593
aF0.00039810719317756593
aF0.00039810719317756593
aF0.00039810719317756593
aF0.00039810719317756593
aF0.00039810719317756593
aF0.00039810719317756593
aF0.00039810719317756593
aF0.00039810719317756593
aF0.00039810719317756593
aF0.00039810719317756593
aF0.00039810719317756593
aF0.00039810719317756593
aF0.00039810719317756593
aF0.00039810719317756593
aF0.00039810719317756593
aF0.00039810719317756593
aF0.00039810719317756593
aF0.00039810719317756593
aF0.00039810719317756593
aF0.00039810719317756593
aF0.00039810719317756593
aF0.00039810719317756593
aF0.00039810719317756593
aF0.00039810719317756593
aF0.00039810719317756593
aF0.00039810719317756593
aF0.00039810719317756593
aF0.00039810719317756593
aF0.00039810719317756593
aF0.00039810719317756593
aF0.00039810719317756593
aF0.00039810719317756593
aF0.00039810719317756593
aF0.00039810719317756593
aF0.00039810719317756593
aF0.00039810719317756593
aF0.00039810719317756593
aF0.00039810719317756593
aF0.00039810719317756593
aF0.00039810719317756593
aF0.00039810719317756593
aF0.00039810719317756593
aF0.00039810719317756593
aF0.00039810719317756593
aF0.00039810719317756593
aF0.00039810719317756593
aF0.00039810719317756593
aF0.00039810719317756593
aF0.00039810719317756593
aF0.00039810719317756593
aF0.00039810719317756593
aF0.00039810719317756593
aF0.00039810719317756593
aF0.00039810719317756593
aF0.00039810719317756593
aF0.00039810719317756593
aF0.00039810719317756593
aF0.00039810719317756593
aF0.00039810719317756593
aF0.00039810719317756593
aF0.00039810719317756593
aF0.00039810719317756593
aF0.00039810719317756593
aF0.00039810719317756593
aF0.00039810719317756593
aF0.00039810719317756593
aF0.00039810719317756593
aF0.00039810719317756593
aF0.00039810719317756593
aF0.00039810719317756593
aF0.00039810719317756593
aF0.00039810719317756593
aF0.00039810719317756593
aF0.00039810719317756593
aF0.00039810719317756593
aF0.00039810719317756593
aF0.00039810719317756593
asVtime/convergence_iterations
p53
(lp54
F0.0
aF0.0
aF0.0
aF0.0
aF0.0
aF0.0
aF0.0
aF0.0
aF0.0
aF0.0
aF0.0
aF0.0
aF0.0
aF0.0
aF0.0
aF0.0
aF0.0
aF0.0
aF0.0
aF0.0
aF0.0
aF0.0
aF0.0
aF0.0
aF0.0
aF0.0
aF0.0
aF0.0
aF0.0
aF0.0
aF0.0
aF0.0
aF0.0
aF0.0
aF0.0
aF0.0
aF0.0
aF0.0
aF0.0
aF0.0
aF40.0
aF40.0
aF40.0
aF40.0
aF40.0
aF40.0
aF40.0
aF40.0
aF40.0
aF40.0
aF40.0
aF40.0
aF40.0
aF40.0
aF40.0
aF40.0
aF40.0
aF40.0
aF40.0
aF40.0
aF40.0
aF40.0
aF40.0
aF40.0
aF40.0
aF40.0
aF40.0
aF40.0
aF40.0
aF40.0
aF40.0
aF40.0
aF40.0
aF40.0
aF40.0
aF40.0
aF40.0
aF40.0
aF40.0
aF40.0
aF40.0
aF40.0
aF40.0
aF40.0
aF40.0
aF40.0
aF40.0
aF40.0
aF40.0
aF40.0
aF40.0
aF40.0
aF40.0
aF40.0
aF40.0
aF40.0
aF40.0
aF40.0
aF40.0
aF40.0
aF40.0
as.