(dp0
S'checkpoint/checkpoint_steps'
p1
(lp2
I0
aI1
aI2
aI3
aI4
aI5
aI6
aI7
aI8
aI9
aI10
aI11
aI12
aI13
aI14
aI15
aI16
aI17
aI18
aI19
aI20
aI21
aI22
aI23
aI24
aI25
aI26
aI27
aI28
aI29
aI30
aI31
aI32
aI33
aI34
aI35
aI36
aI37
aI38
aI39
aI40
aI41
aI42
aI43
aI44
aI45
aI46
aI47
aI48
aI49
aI50
aI51
aI52
aI53
aI54
aI55
aI56
aI57
aI58
aI59
aI60
aI61
aI62
aI63
aI64
aI65
aI66
aI67
aI68
aI69
aI70
aI71
aI72
aI73
aI74
aI75
aI76
aI77
aI78
aI79
aI80
aI81
aI82
aI83
aI84
aI85
aI86
aI87
aI88
aI89
aI90
aI91
aI92
aI93
aI94
aI95
aI96
aI97
aI98
aI99
aI100
asVcheckpoint/checkpoint_train_acc
p3
(lp4
F0.0
aF0.0
aF0.0
aF0.0
aF0.0
aF0.0
aF0.0
aF0.0
aF0.0
aF0.0
aF0.0
aF0.0
aF0.0
aF0.0
aF0.0
aF0.0
aF0.0
aF0.0
aF0.0
aF0.0
aF0.0
aF0.0
aF0.0
aF0.0
aF0.0
aF0.0
aF0.0
aF0.0
aF0.0
aF0.0
aF0.0
aF0.0
aF0.0
aF0.0
aF0.0
aF0.0
aF0.0
aF0.0
aF0.0
aF0.0
aF0.0
aF0.0
aF0.0
aF0.0
aF0.0
aF0.0
aF0.0
aF0.0
aF0.0
aF0.0
aF0.0
aF0.0
aF0.0
aF0.0
aF0.0
aF0.0
aF0.0
aF0.0
aF0.0
aF0.0
aF0.0
aF0.0
aF0.0
aF0.0
aF0.0
aF0.0
aF0.0
aF0.0
aF0.0
aF0.0
aF0.0
aF0.0
aF0.0
aF0.0
aF0.0
aF0.0
aF0.0
aF0.0
aF0.0
aF0.0
aF0.0
aF0.0
aF0.0
aF0.0
aF0.0
aF0.0
aF0.0
aF0.0
aF0.0
aF0.0
aF0.0
aF0.0
aF0.0
aF0.0
aF0.0
aF0.0
aF0.0
aF0.0
aF0.0
aF0.0
aF0.0
asVtime/percentage_convergence_performance
p5
(lp6
F42.349449157714844
aF12.597417831420898
aF11.604963302612305
aF35.99321365356445
aF19.049238204956055
aF9.890755653381348
aF17.30912208557129
aF12.635025024414062
aF10.04768180847168
aF11.068203926086426
aF14.21347427368164
aF13.460970878601074
aF4.55485200881958
aF6.139071941375732
aF9.406057357788086
aF3.9479618072509766
aF6.991818904876709
aF9.959731101989746
aF4.436983108520508
aF4.041565418243408
aF4.853241920471191
aF3.308518171310425
aF4.8035888671875
aF4.768056869506836
aF3.681790828704834
aF4.226559638977051
aF2.915196180343628
aF1.9636192321777344
aF2.9592373371124268
aF2.7674992084503174
aF2.1112701892852783
aF2.502098560333252
aF2.7052857875823975
aF1.7415034770965576
aF0.9658963084220886
aF1.5955322980880737
aF1.7367122173309326
aF1.1297329664230347
aF1.6877537965774536
aF1.862440824508667
aF0.698305606842041
aF0.5753682851791382
aF1.2898073196411133
aF1.0833191871643066
aF0.8032011985778809
aF1.1164354085922241
aF0.9662325382232666
aF0.46508416533470154
aF0.6772131323814392
aF1.0159070491790771
aF0.6453713178634644
aF0.4025614857673645
aF0.6451737880706787
aF0.6432267427444458
aF0.5616599917411804
aF0.7192246317863464
aF0.6002969741821289
aF0.24285851418972015
aF0.24703164398670197
aF0.5094632506370544
aF0.6272171139717102
aF0.6149938702583313
aF0.5001968145370483
aF0.26142439246177673
aF0.14716343581676483
aF0.29503870010375977
aF0.5011236667633057
aF0.578075647354126
aF0.4794467091560364
aF0.2882794141769409
aF0.17861998081207275
aF0.20848055183887482
aF0.32280433177948
aF0.43964096903800964
aF0.45251742005348206
aF0.3529703617095947
aF0.24339048564434052
aF0.20224112272262573
aF0.23427487909793854
aF0.29412975907325745
aF0.3538098931312561
aF0.3816455602645874
aF0.325385719537735
aF0.24078254401683807
aF0.2141694873571396
aF0.21969321370124817
aF0.25541725754737854
aF0.33361583948135376
aF0.36099663376808167
aF0.3021062910556793
aF0.23614421486854553
aF0.20151641964912415
aF0.2073604166507721
aF0.2663152515888214
aF0.33028921484947205
aF0.33384764194488525
aF0.279072105884552
aF0.2199007272720337
aF0.20048731565475464
aF0.2266581505537033
aF0.2789647579193115
asVcheckpoint/checkpoint_test_acc
p7
(lp8
F0.0
aF0.0
aF0.0
aF0.0
aF0.0
aF0.0
aF0.0
aF0.0
aF0.0
aF0.0
aF0.0
aF0.0
aF0.0
aF0.0
aF0.0
aF0.0
aF0.0
aF0.0
aF0.0
aF0.0
aF0.0
aF0.0
aF0.0
aF0.0
aF0.0
aF0.0
aF0.0
aF0.0
aF0.0
aF0.0
aF0.0
aF0.0
aF0.0
aF0.0
aF0.0
aF0.0
aF0.0
aF0.0
aF0.0
aF0.0
aF0.0
aF0.0
aF0.0
aF0.0
aF0.0
aF0.0
aF0.0
aF0.0
aF0.0
aF0.0
aF0.0
aF0.0
aF0.0
aF0.0
aF0.0
aF0.0
aF0.0
aF0.0
aF0.0
aF0.0
aF0.0
aF0.0
aF0.0
aF0.0
aF0.0
aF0.0
aF0.0
aF0.0
aF0.0
aF0.0
aF0.0
aF0.0
aF0.0
aF0.0
aF0.0
aF0.0
aF0.0
aF0.0
aF0.0
aF0.0
aF0.0
aF0.0
aF0.0
aF0.0
aF0.0
aF0.0
aF0.0
aF0.0
aF0.0
aF0.0
aF0.0
aF0.0
aF0.0
aF0.0
aF0.0
aF0.0
aF0.0
aF0.0
aF0.0
aF0.0
aF0.0
asS'training/training_steps'
p9
(lp10
I1
aI11
aI21
aI31
aI41
aI51
aI61
aI71
aI81
aI91
aI101
aI111
aI121
aI131
aI141
aI151
aI161
aI171
aI181
aI191
aI201
aI211
aI221
aI231
aI241
aI251
aI261
aI271
aI281
aI291
aI301
aI311
aI321
aI331
aI341
aI351
aI361
aI371
aI381
aI391
aI401
aI411
aI421
aI431
aI441
aI451
aI461
aI471
aI481
aI491
aI501
aI511
aI521
aI531
aI541
aI551
aI561
aI571
aI581
aI591
aI601
aI611
aI621
aI631
aI641
aI651
aI661
aI671
aI681
aI691
aI701
aI711
aI721
aI731
aI741
aI751
aI761
aI771
aI781
aI791
asVhyperparams/batch_size
p11
(lp12
F128.0
aF128.0
aF128.0
aF128.0
aF128.0
aF128.0
aF128.0
aF128.0
aF128.0
aF128.0
aF128.0
aF128.0
aF128.0
aF128.0
aF128.0
aF128.0
aF128.0
aF128.0
aF128.0
aF128.0
aF128.0
aF128.0
aF128.0
aF128.0
aF128.0
aF128.0
aF128.0
aF128.0
aF128.0
aF128.0
aF128.0
aF128.0
aF128.0
aF128.0
aF128.0
aF128.0
aF128.0
aF128.0
aF128.0
aF128.0
aF128.0
aF128.0
aF128.0
aF128.0
aF128.0
aF128.0
aF128.0
aF128.0
aF128.0
aF128.0
aF128.0
aF128.0
aF128.0
aF128.0
aF128.0
aF128.0
aF128.0
aF128.0
aF128.0
aF128.0
aF128.0
aF128.0
aF128.0
aF128.0
aF128.0
aF128.0
aF128.0
aF128.0
aF128.0
aF128.0
aF128.0
aF128.0
aF128.0
aF128.0
aF128.0
aF128.0
aF128.0
aF128.0
aF128.0
aF128.0
aF128.0
aF128.0
aF128.0
aF128.0
aF128.0
aF128.0
aF128.0
aF128.0
aF128.0
aF128.0
aF128.0
aF128.0
aF128.0
aF128.0
aF128.0
aF128.0
aF128.0
aF128.0
aF128.0
aF128.0
aF128.0
asS'args'
p13
ccopy_reg
_reconstructor
p14
(cargparse
Namespace
p15
c__builtin__
object
p16
Ntp17
Rp18
(dp19
S'wd'
p20
NsS'data_dir'
p21
S'data'
p22
sS'nesterov'
p23
I00
sS'train_log_interval'
p24
I10
sS'nologs'
p25
I00
sS'num_epochs'
p26
I100
sS'lr_sched_epochs'
p27
NsS'saveto'
p28
S'res/benchmark_small_final/'
p29
sS'lr_sched_factors'
p30
NsS'mu'
p31
F0.99
sS'checkpoint_epochs'
p32
I1
sS'print_train_iter'
p33
I00
sS'lr'
p34
F0.0003981072
sS'bs'
p35
I128
sS'pickle'
p36
I01
sS'random_seed'
p37
I48
sS'no_time'
p38
I00
sS'test_problem'
p39
S'quadratic.noisy_quadratic'
p40
sS'run_name'
p41
S'Momentum/'
p42
sbsVtraining/training_loss
p43
(lp44
F310.2767333984375
aF50.56686782836914
aF178.38858032226562
aF160.25216674804688
aF88.44561767578125
aF108.3982162475586
aF71.6021499633789
aF79.6156234741211
aF107.48233795166016
aF61.25654602050781
aF52.54248809814453
aF81.01924133300781
aF42.247440338134766
aF58.82959747314453
aF79.250244140625
aF30.808631896972656
aF38.03117752075195
aF37.55405807495117
aF42.899593353271484
aF27.356830596923828
aF24.39944839477539
aF25.86553382873535
aF25.692094802856445
aF24.20361328125
aF16.142333984375
aF29.899696350097656
aF38.19272232055664
aF7.453136444091797
aF19.1910343170166
aF32.91856002807617
aF21.995849609375
aF11.116445541381836
aF11.948307037353516
aF23.222164154052734
aF10.967519760131836
aF8.829132080078125
aF15.64903736114502
aF13.750951766967773
aF14.718489646911621
aF13.474918365478516
aF17.89276695251465
aF13.61577033996582
aF25.51064109802246
aF9.225454330444336
aF19.148330688476562
aF19.305583953857422
aF18.919279098510742
aF8.993043899536133
aF15.56286907196045
aF17.642757415771484
aF17.32536506652832
aF8.645441055297852
aF12.541707992553711
aF14.652091026306152
aF20.386375427246094
aF8.168384552001953
aF11.973970413208008
aF14.681594848632812
aF18.8077335357666
aF6.5422868728637695
aF12.01414680480957
aF15.884490966796875
aF15.11890697479248
aF5.357415199279785
aF11.473287582397461
aF15.444536209106445
aF15.239910125732422
aF5.7568488121032715
aF11.28579044342041
aF13.872608184814453
aF16.45564079284668
aF6.588415145874023
aF11.668342590332031
aF13.616609573364258
aF15.994321823120117
aF6.8484601974487305
aF12.174623489379883
aF14.328521728515625
aF16.67984390258789
aF6.577389717102051
asVcheckpoint/checkpoint_train_loss
p45
(lp46
F304.8766784667969
aF106.95368194580078
aF85.46546936035156
aF230.13331604003906
aF121.97857666015625
aF75.31420135498047
aF136.9019317626953
aF111.68866729736328
aF86.83740234375
aF79.22171783447266
aF91.29927062988281
aF90.91170501708984
aF46.258846282958984
aF65.77483367919922
aF85.42689514160156
aF40.73738098144531
aF51.271244049072266
aF69.36243438720703
aF40.51287841796875
aF45.303043365478516
aF52.567081451416016
aF39.0628776550293
aF43.64641189575195
aF41.195465087890625
aF35.47987365722656
aF41.536190032958984
aF34.852230072021484
aF29.143312454223633
aF35.14606857299805
aF33.10883331298828
aF27.669578552246094
aF28.979976654052734
aF30.17429542541504
aF25.51026153564453
aF22.686996459960938
aF27.59648895263672
aF27.145692825317383
aF20.814924240112305
aF23.120756149291992
aF25.28280258178711
aF20.08439064025879
aF20.60334587097168
aF24.459054946899414
aF21.34872817993164
aF18.5307674407959
aF21.05913543701172
aF21.287654876708984
aF18.58612060546875
aF19.439172744750977
aF20.94211769104004
aF18.618921279907227
aF17.684560775756836
aF19.50893211364746
aF18.906192779541016
aF17.522008895874023
aF18.443588256835938
aF18.637678146362305
aF17.44219398498535
aF17.532424926757812
aF18.06824493408203
aF17.53015899658203
aF17.270341873168945
aF17.658565521240234
aF17.499732971191406
aF17.119428634643555
aF17.125690460205078
aF17.126625061035156
aF17.10399627685547
aF17.12763023376465
aF17.048341751098633
aF16.972694396972656
aF16.838886260986328
aF16.703575134277344
aF16.80984115600586
aF16.921520233154297
aF16.8341007232666
aF16.709421157836914
aF16.652179718017578
aF16.634593963623047
aF16.589580535888672
aF16.63479232788086
aF16.760427474975586
aF16.64260482788086
aF16.476585388183594
aF16.566457748413086
aF16.55990982055664
aF16.46174430847168
aF16.586231231689453
aF16.627235412597656
aF16.471967697143555
aF16.45714569091797
aF16.501081466674805
aF16.447376251220703
aF16.456098556518555
aF16.524898529052734
aF16.508893966674805
aF16.43869400024414
aF16.4166259765625
aF16.434192657470703
aF16.42937660217285
aF16.438016891479492
asVcheckpoint/checkpoint_test_loss
p47
(lp48
F271.4599609375
aF80.74945068359375
aF74.3878173828125
aF230.7165069580078
aF122.10562133789062
aF63.39974594116211
aF110.95147705078125
aF80.99050903320312
aF64.4056396484375
aF70.94718933105469
aF91.10836791992188
aF86.28482055664062
aF29.19659996032715
aF39.3514518737793
aF60.29282760620117
aF25.306434631347656
aF44.81755828857422
aF63.84187698364258
aF28.441062927246094
aF25.90643310546875
aF31.10927963256836
aF21.20760154724121
aF30.791004180908203
aF30.563243865966797
aF23.600278854370117
aF27.092247009277344
aF18.6864070892334
aF12.586799621582031
aF18.968711853027344
aF17.739669799804688
aF13.533242225646973
aF16.0384521484375
aF17.34088134765625
aF11.163037300109863
aF6.191395282745361
aF10.227361679077148
aF11.132325172424316
aF7.241588592529297
aF10.818501472473145
aF11.93824577331543
aF4.476139068603516
aF3.688110589981079
aF8.267664909362793
aF6.944076061248779
aF5.148519515991211
aF7.156351089477539
aF6.1935505867004395
aF2.981189489364624
aF4.340936183929443
aF6.511964321136475
aF4.1368303298950195
aF2.5804190635681152
aF4.135563850402832
aF4.123083591461182
aF3.600240468978882
aF4.610229969024658
aF3.8479037284851074
aF1.5567231178283691
aF1.5834728479385376
aF3.2656595706939697
aF4.020461559295654
aF3.942110538482666
aF3.206261396408081
aF1.6757303476333618
aF0.9433175921440125
aF1.8911981582641602
aF3.212202548980713
aF3.7054648399353027
aF3.0732533931732178
aF1.8478710651397705
aF1.1449540853500366
aF1.3363603353500366
aF2.0691757202148438
aF2.818098545074463
aF2.900636672973633
aF2.262540102005005
aF1.5601329803466797
aF1.2963656187057495
aF1.5017019510269165
aF1.8853716850280762
aF2.2679214477539062
aF2.446347951889038
aF2.0857224464416504
aF1.543416142463684
aF1.3728264570236206
aF1.4082335233688354
aF1.637224555015564
aF2.1384775638580322
aF2.313988447189331
aF1.9365012645721436
aF1.5136843919754028
aF1.2917202711105347
aF1.3291802406311035
aF1.7070807218551636
aF2.1171538829803467
aF2.139963388442993
aF1.7888522148132324
aF1.409563660621643
aF1.2851237058639526
aF1.452878713607788
aF1.7881640195846558
asVhyperparams/momentum
p49
(lp50
F0.9900000095367432
aF0.9900000095367432
aF0.9900000095367432
aF0.9900000095367432
aF0.9900000095367432
aF0.9900000095367432
aF0.9900000095367432
aF0.9900000095367432
aF0.9900000095367432
aF0.9900000095367432
aF0.9900000095367432
aF0.9900000095367432
aF0.9900000095367432
aF0.9900000095367432
aF0.9900000095367432
aF0.9900000095367432
aF0.9900000095367432
aF0.9900000095367432
aF0.9900000095367432
aF0.9900000095367432
aF0.9900000095367432
aF0.9900000095367432
aF0.9900000095367432
aF0.9900000095367432
aF0.9900000095367432
aF0.9900000095367432
aF0.9900000095367432
aF0.9900000095367432
aF0.9900000095367432
aF0.9900000095367432
aF0.9900000095367432
aF0.9900000095367432
aF0.9900000095367432
aF0.9900000095367432
aF0.9900000095367432
aF0.9900000095367432
aF0.9900000095367432
aF0.9900000095367432
aF0.9900000095367432
aF0.9900000095367432
aF0.9900000095367432
aF0.9900000095367432
aF0.9900000095367432
aF0.9900000095367432
aF0.9900000095367432
aF0.9900000095367432
aF0.9900000095367432
aF0.9900000095367432
aF0.9900000095367432
aF0.9900000095367432
aF0.9900000095367432
aF0.9900000095367432
aF0.9900000095367432
aF0.9900000095367432
aF0.9900000095367432
aF0.9900000095367432
aF0.9900000095367432
aF0.9900000095367432
aF0.9900000095367432
aF0.9900000095367432
aF0.9900000095367432
aF0.9900000095367432
aF0.9900000095367432
aF0.9900000095367432
aF0.9900000095367432
aF0.9900000095367432
aF0.9900000095367432
aF0.9900000095367432
aF0.9900000095367432
aF0.9900000095367432
aF0.9900000095367432
aF0.9900000095367432
aF0.9900000095367432
aF0.9900000095367432
aF0.9900000095367432
aF0.9900000095367432
aF0.9900000095367432
aF0.9900000095367432
aF0.9900000095367432
aF0.9900000095367432
aF0.9900000095367432
aF0.9900000095367432
aF0.9900000095367432
aF0.9900000095367432
aF0.9900000095367432
aF0.9900000095367432
aF0.9900000095367432
aF0.9900000095367432
aF0.9900000095367432
aF0.9900000095367432
aF0.9900000095367432
aF0.9900000095367432
aF0.9900000095367432
aF0.9900000095367432
aF0.9900000095367432
aF0.9900000095367432
aF0.9900000095367432
aF0.9900000095367432
aF0.9900000095367432
aF0.9900000095367432
aF0.9900000095367432
asVhyperparams/learning_rate
p51
(lp52
F0.00039810719317756593
aF0.00039810719317756593
aF0.00039810719317756593
aF0.00039810719317756593
aF0.00039810719317756593
aF0.00039810719317756593
aF0.00039810719317756593
aF0.00039810719317756593
aF0.00039810719317756593
aF0.00039810719317756593
aF0.00039810719317756593
aF0.00039810719317756593
aF0.00039810719317756593
aF0.00039810719317756593
aF0.00039810719317756593
aF0.00039810719317756593
aF0.00039810719317756593
aF0.00039810719317756593
aF0.00039810719317756593
aF0.00039810719317756593
aF0.00039810719317756593
aF0.00039810719317756593
aF0.00039810719317756593
aF0.00039810719317756593
aF0.00039810719317756593
aF0.00039810719317756593
aF0.00039810719317756593
aF0.00039810719317756593
aF0.00039810719317756593
aF0.00039810719317756593
aF0.00039810719317756593
aF0.00039810719317756593
aF0.00039810719317756593
aF0.00039810719317756593
aF0.00039810719317756593
aF0.00039810719317756593
aF0.00039810719317756593
aF0.00039810719317756593
aF0.00039810719317756593
aF0.00039810719317756593
aF0.00039810719317756593
aF0.00039810719317756593
aF0.00039810719317756593
aF0.00039810719317756593
aF0.00039810719317756593
aF0.00039810719317756593
aF0.00039810719317756593
aF0.00039810719317756593
aF0.00039810719317756593
aF0.00039810719317756593
aF0.00039810719317756593
aF0.00039810719317756593
aF0.00039810719317756593
aF0.00039810719317756593
aF0.00039810719317756593
aF0.00039810719317756593
aF0.00039810719317756593
aF0.00039810719317756593
aF0.00039810719317756593
aF0.00039810719317756593
aF0.00039810719317756593
aF0.00039810719317756593
aF0.00039810719317756593
aF0.00039810719317756593
aF0.00039810719317756593
aF0.00039810719317756593
aF0.00039810719317756593
aF0.00039810719317756593
aF0.00039810719317756593
aF0.00039810719317756593
aF0.00039810719317756593
aF0.00039810719317756593
aF0.00039810719317756593
aF0.00039810719317756593
aF0.00039810719317756593
aF0.00039810719317756593
aF0.00039810719317756593
aF0.00039810719317756593
aF0.00039810719317756593
aF0.00039810719317756593
aF0.00039810719317756593
aF0.00039810719317756593
aF0.00039810719317756593
aF0.00039810719317756593
aF0.00039810719317756593
aF0.00039810719317756593
aF0.00039810719317756593
aF0.00039810719317756593
aF0.00039810719317756593
aF0.00039810719317756593
aF0.00039810719317756593
aF0.00039810719317756593
aF0.00039810719317756593
aF0.00039810719317756593
aF0.00039810719317756593
aF0.00039810719317756593
aF0.00039810719317756593
aF0.00039810719317756593
aF0.00039810719317756593
aF0.00039810719317756593
aF0.00039810719317756593
asVtime/convergence_iterations
p53
(lp54
F0.0
aF0.0
aF0.0
aF0.0
aF0.0
aF0.0
aF0.0
aF0.0
aF0.0
aF0.0
aF0.0
aF0.0
aF0.0
aF0.0
aF0.0
aF0.0
aF0.0
aF0.0
aF0.0
aF0.0
aF0.0
aF0.0
aF0.0
aF0.0
aF0.0
aF0.0
aF0.0
aF0.0
aF0.0
aF0.0
aF0.0
aF0.0
aF0.0
aF0.0
aF34.0
aF34.0
aF34.0
aF34.0
aF34.0
aF34.0
aF34.0
aF34.0
aF34.0
aF34.0
aF34.0
aF34.0
aF34.0
aF34.0
aF34.0
aF34.0
aF34.0
aF34.0
aF34.0
aF34.0
aF34.0
aF34.0
aF34.0
aF34.0
aF34.0
aF34.0
aF34.0
aF34.0
aF34.0
aF34.0
aF34.0
aF34.0
aF34.0
aF34.0
aF34.0
aF34.0
aF34.0
aF34.0
aF34.0
aF34.0
aF34.0
aF34.0
aF34.0
aF34.0
aF34.0
aF34.0
aF34.0
aF34.0
aF34.0
aF34.0
aF34.0
aF34.0
aF34.0
aF34.0
aF34.0
aF34.0
aF34.0
aF34.0
aF34.0
aF34.0
aF34.0
aF34.0
aF34.0
aF34.0
aF34.0
aF34.0
aF34.0
as.