(dp0
S'checkpoint/checkpoint_steps'
p1
(lp2
I0
aI1
aI2
aI3
aI4
aI5
aI6
aI7
aI8
aI9
aI10
aI11
aI12
aI13
aI14
aI15
aI16
aI17
aI18
aI19
aI20
aI21
aI22
aI23
aI24
aI25
aI26
aI27
aI28
aI29
aI30
aI31
aI32
aI33
aI34
aI35
aI36
aI37
aI38
aI39
aI40
aI41
aI42
aI43
aI44
aI45
aI46
aI47
aI48
aI49
aI50
aI51
aI52
aI53
aI54
aI55
aI56
aI57
aI58
aI59
aI60
aI61
aI62
aI63
aI64
aI65
aI66
aI67
aI68
aI69
aI70
aI71
aI72
aI73
aI74
aI75
aI76
aI77
aI78
aI79
aI80
aI81
aI82
aI83
aI84
aI85
aI86
aI87
aI88
aI89
aI90
aI91
aI92
aI93
aI94
aI95
aI96
aI97
aI98
aI99
aI100
asVcheckpoint/checkpoint_train_acc
p3
(lp4
F0.0
aF0.0
aF0.0
aF0.0
aF0.0
aF0.0
aF0.0
aF0.0
aF0.0
aF0.0
aF0.0
aF0.0
aF0.0
aF0.0
aF0.0
aF0.0
aF0.0
aF0.0
aF0.0
aF0.0
aF0.0
aF0.0
aF0.0
aF0.0
aF0.0
aF0.0
aF0.0
aF0.0
aF0.0
aF0.0
aF0.0
aF0.0
aF0.0
aF0.0
aF0.0
aF0.0
aF0.0
aF0.0
aF0.0
aF0.0
aF0.0
aF0.0
aF0.0
aF0.0
aF0.0
aF0.0
aF0.0
aF0.0
aF0.0
aF0.0
aF0.0
aF0.0
aF0.0
aF0.0
aF0.0
aF0.0
aF0.0
aF0.0
aF0.0
aF0.0
aF0.0
aF0.0
aF0.0
aF0.0
aF0.0
aF0.0
aF0.0
aF0.0
aF0.0
aF0.0
aF0.0
aF0.0
aF0.0
aF0.0
aF0.0
aF0.0
aF0.0
aF0.0
aF0.0
aF0.0
aF0.0
aF0.0
aF0.0
aF0.0
aF0.0
aF0.0
aF0.0
aF0.0
aF0.0
aF0.0
aF0.0
aF0.0
aF0.0
aF0.0
aF0.0
aF0.0
aF0.0
aF0.0
aF0.0
aF0.0
aF0.0
asVtime/percentage_convergence_performance
p5
(lp6
F52.91675567626953
aF9.875521659851074
aF29.658788681030273
aF41.88059997558594
aF8.2852144241333
aF26.065322875976562
aF13.907516479492188
aF15.151400566101074
aF28.75697135925293
aF5.592051029205322
aF14.515762329101562
aF13.215056419372559
aF4.053253650665283
aF18.923917770385742
aF9.070295333862305
aF5.170053958892822
aF9.152798652648926
aF3.974330186843872
aF11.35800552368164
aF8.114123344421387
aF3.2714595794677734
aF6.749940872192383
aF2.863744020462036
aF6.286224842071533
aF7.6477484703063965
aF2.5727298259735107
aF3.668485164642334
aF2.7483482360839844
aF3.5717434883117676
aF5.386582374572754
aF2.467068910598755
aF1.8656160831451416
aF1.868721842765808
aF2.3243322372436523
aF3.610710859298706
aF2.230118751525879
aF1.2268397808074951
aF0.988137423992157
aF1.3862437009811401
aF2.5599169731140137
aF2.119002103805542
aF1.0688046216964722
aF0.4869261384010315
aF0.9113907814025879
aF1.7217533588409424
aF1.5025070905685425
aF1.1905702352523804
aF0.6006209850311279
aF0.3899826407432556
aF1.1556336879730225
aF1.1884732246398926
aF0.8677646517753601
aF0.5367125272750854
aF0.37491875886917114
aF0.8774282932281494
aF0.8657699227333069
aF0.6500720977783203
aF0.5317180156707764
aF0.24742406606674194
aF0.5943040251731873
aF0.8242126703262329
aF0.594896137714386
aF0.44005370140075684
aF0.23578621447086334
aF0.42968347668647766
aF0.6345917582511902
aF0.5094413757324219
aF0.4795822501182556
aF0.2912695109844208
aF0.30209803581237793
aF0.5243145227432251
aF0.43277302384376526
aF0.3824215829372406
aF0.329043447971344
aF0.3028596043586731
aF0.45779353380203247
aF0.40634459257125854
aF0.32758453488349915
aF0.31053319573402405
aF0.2743336856365204
aF0.39925169944763184
aF0.41901662945747375
aF0.32924437522888184
aF0.31111425161361694
aF0.27450910210609436
aF0.33022114634513855
aF0.37881362438201904
aF0.3285658359527588
aF0.3226528763771057
aF0.3083086311817169
aF0.3186511993408203
aF0.34154212474823
aF0.29651588201522827
aF0.2960929572582245
aF0.3211739659309387
aF0.33469218015670776
aF0.3467167317867279
aF0.2967764437198639
aF0.26478853821754456
aF0.29390791058540344
aF0.32863515615463257
asVcheckpoint/checkpoint_test_acc
p7
(lp8
F0.0
aF0.0
aF0.0
aF0.0
aF0.0
aF0.0
aF0.0
aF0.0
aF0.0
aF0.0
aF0.0
aF0.0
aF0.0
aF0.0
aF0.0
aF0.0
aF0.0
aF0.0
aF0.0
aF0.0
aF0.0
aF0.0
aF0.0
aF0.0
aF0.0
aF0.0
aF0.0
aF0.0
aF0.0
aF0.0
aF0.0
aF0.0
aF0.0
aF0.0
aF0.0
aF0.0
aF0.0
aF0.0
aF0.0
aF0.0
aF0.0
aF0.0
aF0.0
aF0.0
aF0.0
aF0.0
aF0.0
aF0.0
aF0.0
aF0.0
aF0.0
aF0.0
aF0.0
aF0.0
aF0.0
aF0.0
aF0.0
aF0.0
aF0.0
aF0.0
aF0.0
aF0.0
aF0.0
aF0.0
aF0.0
aF0.0
aF0.0
aF0.0
aF0.0
aF0.0
aF0.0
aF0.0
aF0.0
aF0.0
aF0.0
aF0.0
aF0.0
aF0.0
aF0.0
aF0.0
aF0.0
aF0.0
aF0.0
aF0.0
aF0.0
aF0.0
aF0.0
aF0.0
aF0.0
aF0.0
aF0.0
aF0.0
aF0.0
aF0.0
aF0.0
aF0.0
aF0.0
aF0.0
aF0.0
aF0.0
aF0.0
asS'training/training_steps'
p9
(lp10
I1
aI11
aI21
aI31
aI41
aI51
aI61
aI71
aI81
aI91
aI101
aI111
aI121
aI131
aI141
aI151
aI161
aI171
aI181
aI191
aI201
aI211
aI221
aI231
aI241
aI251
aI261
aI271
aI281
aI291
aI301
aI311
aI321
aI331
aI341
aI351
aI361
aI371
aI381
aI391
aI401
aI411
aI421
aI431
aI441
aI451
aI461
aI471
aI481
aI491
aI501
aI511
aI521
aI531
aI541
aI551
aI561
aI571
aI581
aI591
aI601
aI611
aI621
aI631
aI641
aI651
aI661
aI671
aI681
aI691
aI701
aI711
aI721
aI731
aI741
aI751
aI761
aI771
aI781
aI791
asVhyperparams/batch_size
p11
(lp12
F128.0
aF128.0
aF128.0
aF128.0
aF128.0
aF128.0
aF128.0
aF128.0
aF128.0
aF128.0
aF128.0
aF128.0
aF128.0
aF128.0
aF128.0
aF128.0
aF128.0
aF128.0
aF128.0
aF128.0
aF128.0
aF128.0
aF128.0
aF128.0
aF128.0
aF128.0
aF128.0
aF128.0
aF128.0
aF128.0
aF128.0
aF128.0
aF128.0
aF128.0
aF128.0
aF128.0
aF128.0
aF128.0
aF128.0
aF128.0
aF128.0
aF128.0
aF128.0
aF128.0
aF128.0
aF128.0
aF128.0
aF128.0
aF128.0
aF128.0
aF128.0
aF128.0
aF128.0
aF128.0
aF128.0
aF128.0
aF128.0
aF128.0
aF128.0
aF128.0
aF128.0
aF128.0
aF128.0
aF128.0
aF128.0
aF128.0
aF128.0
aF128.0
aF128.0
aF128.0
aF128.0
aF128.0
aF128.0
aF128.0
aF128.0
aF128.0
aF128.0
aF128.0
aF128.0
aF128.0
aF128.0
aF128.0
aF128.0
aF128.0
aF128.0
aF128.0
aF128.0
aF128.0
aF128.0
aF128.0
aF128.0
aF128.0
aF128.0
aF128.0
aF128.0
aF128.0
aF128.0
aF128.0
aF128.0
aF128.0
aF128.0
asS'args'
p13
ccopy_reg
_reconstructor
p14
(cargparse
Namespace
p15
c__builtin__
object
p16
Ntp17
Rp18
(dp19
S'wd'
p20
NsS'data_dir'
p21
S'data'
p22
sS'nesterov'
p23
I00
sS'train_log_interval'
p24
I10
sS'nologs'
p25
I00
sS'num_epochs'
p26
I100
sS'lr_sched_epochs'
p27
NsS'saveto'
p28
S'res/benchmark_small_final/'
p29
sS'lr_sched_factors'
p30
NsS'mu'
p31
F0.99
sS'checkpoint_epochs'
p32
I1
sS'print_train_iter'
p33
I00
sS'lr'
p34
F0.0003981072
sS'bs'
p35
I128
sS'pickle'
p36
I01
sS'random_seed'
p37
I47
sS'no_time'
p38
I00
sS'test_problem'
p39
S'quadratic.noisy_quadratic'
p40
sS'run_name'
p41
S'Momentum/'
p42
sbsVtraining/training_loss
p43
(lp44
F376.7923583984375
aF43.92066192626953
aF255.97592163085938
aF93.36194610595703
aF193.6593017578125
aF64.85026550292969
aF131.38267517089844
aF82.39579010009766
aF114.72119140625
aF78.69622039794922
aF60.72175216674805
aF102.58071899414062
aF62.64387512207031
aF70.95740509033203
aF60.31965637207031
aF89.25635528564453
aF47.04624938964844
aF51.00455093383789
aF43.956382751464844
aF75.14088439941406
aF30.61888885498047
aF40.43170928955078
aF33.1121826171875
aF51.704254150390625
aF29.525453567504883
aF34.70140075683594
aF36.791343688964844
aF37.3807373046875
aF33.856292724609375
aF23.40240478515625
aF42.74858093261719
aF25.5155029296875
aF31.778888702392578
aF14.175453186035156
aF36.560882568359375
aF14.9345703125
aF24.482749938964844
aF15.356546401977539
aF25.70568084716797
aF10.665037155151367
aF23.17320442199707
aF16.287694931030273
aF22.893102645874023
aF12.440408706665039
aF20.700820922851562
aF17.96695327758789
aF22.668495178222656
aF12.104959487915039
aF18.215457916259766
aF19.949663162231445
aF19.891132354736328
aF11.937301635742188
aF17.572242736816406
aF21.02239990234375
aF18.545759201049805
aF12.31889820098877
aF18.42460060119629
aF20.82048225402832
aF18.935386657714844
aF12.491514205932617
aF17.342411041259766
aF20.887588500976562
aF19.07133674621582
aF11.785606384277344
aF16.490999221801758
aF21.23154067993164
aF18.52260398864746
aF12.096275329589844
aF17.16452980041504
aF21.432910919189453
aF18.640838623046875
aF12.904997825622559
aF17.668315887451172
aF21.86495018005371
aF19.441078186035156
aF12.949357986450195
aF17.688446044921875
aF22.012155532836914
aF20.26416778564453
aF12.495951652526855
asVcheckpoint/checkpoint_train_loss
p45
(lp46
F386.15386962890625
aF87.34734344482422
aF180.5626220703125
aF255.95388793945312
aF69.2777328491211
aF206.2886199951172
aF118.49817657470703
aF98.52606201171875
aF175.05227661132812
aF44.46338653564453
aF123.85014343261719
aF114.65911102294922
aF35.102535247802734
aF116.683837890625
aF62.955997467041016
aF57.07044219970703
aF87.29781341552734
aF39.89384460449219
aF72.974365234375
aF55.16358184814453
aF39.1840934753418
aF69.29685974121094
aF36.1750373840332
aF45.327606201171875
aF52.6207275390625
aF30.651952743530273
aF46.23517990112305
aF36.65163040161133
aF31.660234451293945
aF39.652034759521484
aF27.852094650268555
aF32.09282302856445
aF31.31585693359375
aF26.17815589904785
aF29.52422523498535
aF24.73055648803711
aF25.778457641601562
aF25.87690544128418
aF22.68606948852539
aF24.51523780822754
aF22.765960693359375
aF21.9843692779541
aF21.649471282958984
aF21.57408905029297
aF21.77482795715332
aF19.214921951293945
aF20.666229248046875
aF20.24956703186035
aF18.29405403137207
aF20.002792358398438
aF18.646154403686523
aF18.258745193481445
aF18.474781036376953
aF17.432125091552734
aF18.61600685119629
aF17.30739974975586
aF17.01445960998535
aF18.096452713012695
aF16.46491813659668
aF17.081409454345703
aF17.25315284729004
aF16.355995178222656
aF16.9754581451416
aF16.315433502197266
aF16.59738540649414
aF16.659860610961914
aF15.793840408325195
aF16.598583221435547
aF16.1088924407959
aF15.844917297363281
aF16.503232955932617
aF15.738744735717773
aF15.928504943847656
aF15.994799613952637
aF15.589788436889648
aF16.085357666015625
aF15.706528663635254
aF15.667376518249512
aF15.913651466369629
aF15.46277141571045
aF15.753458976745605
aF15.708093643188477
aF15.473075866699219
aF15.762507438659668
aF15.534782409667969
aF15.56591796875
aF15.646642684936523
aF15.40895938873291
aF15.571181297302246
aF15.521193504333496
aF15.487217903137207
aF15.603754997253418
aF15.411967277526855
aF15.4531888961792
aF15.4785795211792
aF15.400500297546387
aF15.52577018737793
aF15.453231811523438
aF15.403925895690918
aF15.448020935058594
aF15.386473655700684
asVcheckpoint/checkpoint_test_loss
p47
(lp48
F339.1964111328125
aF63.302093505859375
aF190.1128387451172
aF268.45465087890625
aF53.10822677612305
aF167.07872009277344
aF89.14717864990234
aF97.12047576904297
aF184.33218383789062
aF35.84504699707031
aF93.04603576660156
aF84.70851135253906
aF25.981355667114258
aF121.30230712890625
aF58.14059066772461
aF33.140045166015625
aF58.66944122314453
aF25.47545623779297
aF72.80481719970703
aF52.01152801513672
aF20.970056533813477
aF43.267120361328125
aF18.356599807739258
aF40.294700622558594
aF49.02206802368164
aF16.49119758605957
aF23.514989852905273
aF17.616912841796875
aF22.89487648010254
aF34.527992248535156
aF15.813911437988281
aF11.958599090576172
aF11.978507041931152
aF14.898969650268555
aF23.144657135009766
aF14.295061111450195
aF7.864043235778809
aF6.333961009979248
aF8.885822296142578
aF16.409067153930664
aF13.582802772521973
aF6.851037502288818
aF3.1211965084075928
aF5.842014789581299
aF11.036438941955566
aF9.631070137023926
aF7.631555557250977
aF3.849980354309082
aF2.499788761138916
aF7.407611846923828
aF7.6181135177612305
aF5.562371253967285
aF3.4403271675109863
aF2.403229236602783
aF5.62431526184082
aF5.549585342407227
aF4.166962146759033
aF3.4083125591278076
aF1.5859882831573486
aF3.8094887733459473
aF5.283203125
aF3.813284397125244
aF2.820744276046753
aF1.5113896131515503
aF2.7542710304260254
aF4.067733287811279
aF3.265519142150879
aF3.074122190475464
aF1.8670376539230347
aF1.9364484548568726
aF3.360856056213379
aF2.7740750312805176
aF2.451322317123413
aF2.109168529510498
aF1.941330075263977
aF2.9344565868377686
aF2.6046688556671143
aF2.0998167991638184
aF1.9905177354812622
aF1.7584789991378784
aF2.5592033863067627
aF2.685896635055542
aF2.1104564666748047
aF1.9942424297332764
aF1.7596033811569214
aF2.116717576980591
aF2.4281952381134033
aF2.106106996536255
aF2.068204879760742
aF1.976258397102356
aF2.0425541400909424
aF2.1892850399017334
aF1.9006668329238892
aF1.8979557752609253
aF2.058725118637085
aF2.1453769207000732
aF2.222454309463501
aF1.9023369550704956
aF1.6972945928573608
aF1.8839497566223145
aF2.1065514087677
asVhyperparams/momentum
p49
(lp50
F0.9900000095367432
aF0.9900000095367432
aF0.9900000095367432
aF0.9900000095367432
aF0.9900000095367432
aF0.9900000095367432
aF0.9900000095367432
aF0.9900000095367432
aF0.9900000095367432
aF0.9900000095367432
aF0.9900000095367432
aF0.9900000095367432
aF0.9900000095367432
aF0.9900000095367432
aF0.9900000095367432
aF0.9900000095367432
aF0.9900000095367432
aF0.9900000095367432
aF0.9900000095367432
aF0.9900000095367432
aF0.9900000095367432
aF0.9900000095367432
aF0.9900000095367432
aF0.9900000095367432
aF0.9900000095367432
aF0.9900000095367432
aF0.9900000095367432
aF0.9900000095367432
aF0.9900000095367432
aF0.9900000095367432
aF0.9900000095367432
aF0.9900000095367432
aF0.9900000095367432
aF0.9900000095367432
aF0.9900000095367432
aF0.9900000095367432
aF0.9900000095367432
aF0.9900000095367432
aF0.9900000095367432
aF0.9900000095367432
aF0.9900000095367432
aF0.9900000095367432
aF0.9900000095367432
aF0.9900000095367432
aF0.9900000095367432
aF0.9900000095367432
aF0.9900000095367432
aF0.9900000095367432
aF0.9900000095367432
aF0.9900000095367432
aF0.9900000095367432
aF0.9900000095367432
aF0.9900000095367432
aF0.9900000095367432
aF0.9900000095367432
aF0.9900000095367432
aF0.9900000095367432
aF0.9900000095367432
aF0.9900000095367432
aF0.9900000095367432
aF0.9900000095367432
aF0.9900000095367432
aF0.9900000095367432
aF0.9900000095367432
aF0.9900000095367432
aF0.9900000095367432
aF0.9900000095367432
aF0.9900000095367432
aF0.9900000095367432
aF0.9900000095367432
aF0.9900000095367432
aF0.9900000095367432
aF0.9900000095367432
aF0.9900000095367432
aF0.9900000095367432
aF0.9900000095367432
aF0.9900000095367432
aF0.9900000095367432
aF0.9900000095367432
aF0.9900000095367432
aF0.9900000095367432
aF0.9900000095367432
aF0.9900000095367432
aF0.9900000095367432
aF0.9900000095367432
aF0.9900000095367432
aF0.9900000095367432
aF0.9900000095367432
aF0.9900000095367432
aF0.9900000095367432
aF0.9900000095367432
aF0.9900000095367432
aF0.9900000095367432
aF0.9900000095367432
aF0.9900000095367432
aF0.9900000095367432
aF0.9900000095367432
aF0.9900000095367432
aF0.9900000095367432
aF0.9900000095367432
aF0.9900000095367432
asVhyperparams/learning_rate
p51
(lp52
F0.00039810719317756593
aF0.00039810719317756593
aF0.00039810719317756593
aF0.00039810719317756593
aF0.00039810719317756593
aF0.00039810719317756593
aF0.00039810719317756593
aF0.00039810719317756593
aF0.00039810719317756593
aF0.00039810719317756593
aF0.00039810719317756593
aF0.00039810719317756593
aF0.00039810719317756593
aF0.00039810719317756593
aF0.00039810719317756593
aF0.00039810719317756593
aF0.00039810719317756593
aF0.00039810719317756593
aF0.00039810719317756593
aF0.00039810719317756593
aF0.00039810719317756593
aF0.00039810719317756593
aF0.00039810719317756593
aF0.00039810719317756593
aF0.00039810719317756593
aF0.00039810719317756593
aF0.00039810719317756593
aF0.00039810719317756593
aF0.00039810719317756593
aF0.00039810719317756593
aF0.00039810719317756593
aF0.00039810719317756593
aF0.00039810719317756593
aF0.00039810719317756593
aF0.00039810719317756593
aF0.00039810719317756593
aF0.00039810719317756593
aF0.00039810719317756593
aF0.00039810719317756593
aF0.00039810719317756593
aF0.00039810719317756593
aF0.00039810719317756593
aF0.00039810719317756593
aF0.00039810719317756593
aF0.00039810719317756593
aF0.00039810719317756593
aF0.00039810719317756593
aF0.00039810719317756593
aF0.00039810719317756593
aF0.00039810719317756593
aF0.00039810719317756593
aF0.00039810719317756593
aF0.00039810719317756593
aF0.00039810719317756593
aF0.00039810719317756593
aF0.00039810719317756593
aF0.00039810719317756593
aF0.00039810719317756593
aF0.00039810719317756593
aF0.00039810719317756593
aF0.00039810719317756593
aF0.00039810719317756593
aF0.00039810719317756593
aF0.00039810719317756593
aF0.00039810719317756593
aF0.00039810719317756593
aF0.00039810719317756593
aF0.00039810719317756593
aF0.00039810719317756593
aF0.00039810719317756593
aF0.00039810719317756593
aF0.00039810719317756593
aF0.00039810719317756593
aF0.00039810719317756593
aF0.00039810719317756593
aF0.00039810719317756593
aF0.00039810719317756593
aF0.00039810719317756593
aF0.00039810719317756593
aF0.00039810719317756593
aF0.00039810719317756593
aF0.00039810719317756593
aF0.00039810719317756593
aF0.00039810719317756593
aF0.00039810719317756593
aF0.00039810719317756593
aF0.00039810719317756593
aF0.00039810719317756593
aF0.00039810719317756593
aF0.00039810719317756593
aF0.00039810719317756593
aF0.00039810719317756593
aF0.00039810719317756593
aF0.00039810719317756593
aF0.00039810719317756593
aF0.00039810719317756593
aF0.00039810719317756593
aF0.00039810719317756593
aF0.00039810719317756593
aF0.00039810719317756593
aF0.00039810719317756593
asVtime/convergence_iterations
p53
(lp54
F0.0
aF0.0
aF0.0
aF0.0
aF0.0
aF0.0
aF0.0
aF0.0
aF0.0
aF0.0
aF0.0
aF0.0
aF0.0
aF0.0
aF0.0
aF0.0
aF0.0
aF0.0
aF0.0
aF0.0
aF0.0
aF0.0
aF0.0
aF0.0
aF0.0
aF0.0
aF0.0
aF0.0
aF0.0
aF0.0
aF0.0
aF0.0
aF0.0
aF0.0
aF0.0
aF0.0
aF0.0
aF37.0
aF37.0
aF37.0
aF37.0
aF37.0
aF37.0
aF37.0
aF37.0
aF37.0
aF37.0
aF37.0
aF37.0
aF37.0
aF37.0
aF37.0
aF37.0
aF37.0
aF37.0
aF37.0
aF37.0
aF37.0
aF37.0
aF37.0
aF37.0
aF37.0
aF37.0
aF37.0
aF37.0
aF37.0
aF37.0
aF37.0
aF37.0
aF37.0
aF37.0
aF37.0
aF37.0
aF37.0
aF37.0
aF37.0
aF37.0
aF37.0
aF37.0
aF37.0
aF37.0
aF37.0
aF37.0
aF37.0
aF37.0
aF37.0
aF37.0
aF37.0
aF37.0
aF37.0
aF37.0
aF37.0
aF37.0
aF37.0
aF37.0
aF37.0
aF37.0
aF37.0
aF37.0
aF37.0
aF37.0
as.