(dp0
S'checkpoint/checkpoint_steps'
p1
(lp2
I0
aI1
aI2
aI3
aI4
aI5
asVcheckpoint/checkpoint_train_acc
p3
(lp4
F0.07525712251663208
aF0.9710245132446289
aF0.979727029800415
aF0.9819027185440063
aF0.982594907283783
aF0.9880340099334717
asVhyperparams/learning_rate
p5
(lp6
F0.0015848929760977626
aF0.0015848929760977626
aF0.0015848929760977626
aF0.0015848929760977626
aF0.0015848929760977626
aF0.0015848929760977626
asVtime/percentage_convergence_performance
p7
(lp8
F0.08461927622556686
aF0.9953469634056091
aF1.001565933227539
aF1.002585530281067
aF1.0000367164611816
aF1.0044206380844116
asVcheckpoint/checkpoint_test_acc
p9
(lp10
F0.08208069950342178
aF0.9654865264892578
aF0.9715189933776855
aF0.972507894039154
aF0.9700356125831604
aF0.9742879867553711
asS'training/training_steps'
p11
(lp12
I1
aI11
aI21
aI31
aI41
aI51
aI61
aI71
aI81
aI91
aI101
aI111
aI121
aI131
aI141
aI151
aI161
aI171
aI181
aI191
aI201
aI211
aI221
aI231
aI241
aI251
aI261
aI271
aI281
aI291
aI301
aI311
aI321
aI331
aI341
aI351
aI361
aI371
aI381
aI391
aI401
aI411
aI421
aI431
aI441
aI451
aI461
aI471
aI481
aI491
aI501
aI511
aI521
aI531
aI541
aI551
aI561
aI571
aI581
aI591
aI601
aI611
aI621
aI631
aI641
aI651
aI661
aI671
aI681
aI691
aI701
aI711
aI721
aI731
aI741
aI751
aI761
aI771
aI781
aI791
aI801
aI811
aI821
aI831
aI841
aI851
aI861
aI871
aI881
aI891
aI901
aI911
aI921
aI931
aI941
aI951
aI961
aI971
aI981
aI991
aI1001
aI1011
aI1021
aI1031
aI1041
aI1051
aI1061
aI1071
aI1081
aI1091
aI1101
aI1111
aI1121
aI1131
aI1141
aI1151
aI1161
aI1171
aI1181
aI1191
aI1201
aI1211
aI1221
aI1231
aI1241
aI1251
aI1261
aI1271
aI1281
aI1291
aI1301
aI1311
aI1321
aI1331
aI1341
aI1351
aI1361
aI1371
aI1381
aI1391
aI1401
aI1411
aI1421
aI1431
aI1441
aI1451
aI1461
aI1471
aI1481
aI1491
aI1501
aI1511
aI1521
aI1531
aI1541
aI1551
aI1561
aI1571
aI1581
aI1591
aI1601
aI1611
aI1621
aI1631
aI1641
aI1651
aI1661
aI1671
aI1681
aI1691
aI1701
aI1711
aI1721
aI1731
aI1741
aI1751
aI1761
aI1771
aI1781
aI1791
aI1801
aI1811
aI1821
aI1831
aI1841
aI1851
aI1861
aI1871
aI1881
aI1891
aI1901
aI1911
aI1921
aI1931
aI1941
aI1951
aI1961
aI1971
aI1981
aI1991
aI2001
aI2011
aI2021
aI2031
aI2041
aI2051
aI2061
aI2071
aI2081
aI2091
aI2101
aI2111
aI2121
aI2131
aI2141
aI2151
aI2161
aI2171
aI2181
aI2191
aI2201
aI2211
aI2221
aI2231
aI2241
aI2251
aI2261
aI2271
aI2281
aI2291
aI2301
aI2311
aI2321
aI2331
aI2341
asVhyperparams/batch_size
p13
(lp14
F128.0
aF128.0
aF128.0
aF128.0
aF128.0
aF128.0
asS'args'
p15
ccopy_reg
_reconstructor
p16
(cargparse
Namespace
p17
c__builtin__
object
p18
Ntp19
Rp20
(dp21
S'wd'
p22
NsS'data_dir'
p23
S'data_tfobs'
p24
sS'epsilon'
p25
F1e-08
sS'nologs'
p26
I00
sS'num_epochs'
p27
I5
sS'lr_sched_epochs'
p28
NsS'saveto'
p29
S'res/benchmark_small_final/'
p30
sS'lr_sched_factors'
p31
NsS'train_log_interval'
p32
I10
sS'checkpoint_epochs'
p33
I1
sS'print_train_iter'
p34
I00
sS'lr'
p35
F0.001584893
sS'beta2'
p36
F0.999
sS'beta1'
p37
F0.9
sS'bs'
p38
I128
sS'pickle'
p39
I01
sS'random_seed'
p40
I47
sS'no_time'
p41
I00
sS'test_problem'
p42
S'mnist.mnist_mlp'
p43
sS'run_name'
p44
S'Adam/'
p45
sbsVhyperparams/beta2
p46
(lp47
F0.9990000128746033
aF0.9990000128746033
aF0.9990000128746033
aF0.9990000128746033
aF0.9990000128746033
aF0.9990000128746033
asVtraining/training_loss
p48
(lp49
F2.3041162490844727
aF1.2022992372512817
aF0.7574344873428345
aF0.4291987419128418
aF0.4400899112224579
aF0.5029898881912231
aF0.4975316524505615
aF0.29958075284957886
aF0.20840808749198914
aF0.298331081867218
aF0.21196910738945007
aF0.2738473415374756
aF0.1810993254184723
aF0.27296438813209534
aF0.20102348923683167
aF0.18976661562919617
aF0.13151133060455322
aF0.32130593061447144
aF0.3152623176574707
aF0.16733233630657196
aF0.24682998657226562
aF0.1077103242278099
aF0.19577902555465698
aF0.16627171635627747
aF0.1851656585931778
aF0.15431246161460876
aF0.08224394172430038
aF0.09109830856323242
aF0.07393892109394073
aF0.09626880288124084
aF0.12810665369033813
aF0.17431169748306274
aF0.15511873364448547
aF0.13307201862335205
aF0.21213935315608978
aF0.10819809883832932
aF0.14174361526966095
aF0.1194496676325798
aF0.24164102971553802
aF0.12252268940210342
aF0.1893729269504547
aF0.09360513091087341
aF0.28176355361938477
aF0.1692248284816742
aF0.25308310985565186
aF0.08748769015073776
aF0.027407290413975716
aF0.0527721643447876
aF0.21569156646728516
aF0.06554815918207169
aF0.12086422741413116
aF0.06912244111299515
aF0.07327794283628464
aF0.18712760508060455
aF0.051153384149074554
aF0.0940980315208435
aF0.014387954957783222
aF0.05639500170946121
aF0.09703365713357925
aF0.176227867603302
aF0.11637195944786072
aF0.16594724357128143
aF0.16932007670402527
aF0.13414011895656586
aF0.08510632812976837
aF0.19140437245368958
aF0.0790306031703949
aF0.11599060893058777
aF0.06923564523458481
aF0.09194987267255783
aF0.12933480739593506
aF0.05832280218601227
aF0.08539102971553802
aF0.07612960040569305
aF0.14965876936912537
aF0.06923528015613556
aF0.1888798475265503
aF0.2384902685880661
aF0.10703100264072418
aF0.1171121895313263
aF0.08116872608661652
aF0.02997281774878502
aF0.01828206703066826
aF0.1382388472557068
aF0.033590465784072876
aF0.042319558560848236
aF0.04042945057153702
aF0.07490560412406921
aF0.06107541173696518
aF0.02479531243443489
aF0.07018221169710159
aF0.054495636373758316
aF0.04611063003540039
aF0.061348557472229004
aF0.07580152153968811
aF0.10857422649860382
aF0.028896063566207886
aF0.08349405229091644
aF0.04174846410751343
aF0.06866031885147095
aF0.010221874341368675
aF0.027410991489887238
aF0.01373845711350441
aF0.03218753635883331
aF0.025621019303798676
aF0.06138969585299492
aF0.019166596233844757
aF0.034802354872226715
aF0.037239380180835724
aF0.1042986661195755
aF0.03760988637804985
aF0.01469249278306961
aF0.028331559151411057
aF0.12217042595148087
aF0.060639217495918274
aF0.05327018350362778
aF0.06693696975708008
aF0.03932014852762222
aF0.036451827734708786
aF0.10601349174976349
aF0.12396964430809021
aF0.06265462189912796
aF0.047539472579956055
aF0.04794168099761009
aF0.04370203614234924
aF0.0336962528526783
aF0.0472702793776989
aF0.07782730460166931
aF0.06037748232483864
aF0.04615701362490654
aF0.03745139390230179
aF0.07034914195537567
aF0.08672559261322021
aF0.08799359202384949
aF0.054970283061265945
aF0.10488170385360718
aF0.020759405568242073
aF0.037205103784799576
aF0.06895879656076431
aF0.0568426176905632
aF0.03660812973976135
aF0.1504402905702591
aF0.053905121982097626
aF0.032648202031850815
aF0.14775055646896362
aF0.00731226522475481
aF0.014965631067752838
aF0.02317468449473381
aF0.009765129536390305
aF0.0746726244688034
aF0.038096971809864044
aF0.07090084999799728
aF0.0034158206544816494
aF0.0076365722343325615
aF0.04932403191924095
aF0.013798065483570099
aF0.07402832806110382
aF0.01963205635547638
aF0.0579056479036808
aF0.04603392258286476
aF0.02800576575100422
aF0.102058544754982
aF0.018145952373743057
aF0.01690400391817093
aF0.056355565786361694
aF0.020779849961400032
aF0.032327115535736084
aF0.14976483583450317
aF0.052418097853660583
aF0.03212478756904602
aF0.06616812944412231
aF0.04967973381280899
aF0.03946024924516678
aF0.14302635192871094
aF0.03659459948539734
aF0.029166681692004204
aF0.10213068127632141
aF0.1497834473848343
aF0.08864590525627136
aF0.02235807105898857
aF0.022974055260419846
aF0.011028040200471878
aF0.0064717847853899
aF0.022290769964456558
aF0.03684324398636818
aF0.0037291781045496464
aF0.06004789099097252
aF0.04360703006386757
aF0.10822365432977676
aF0.0015591467963531613
aF0.0024631298147141933
aF0.027049999684095383
aF0.037909068167209625
aF0.009344154968857765
aF0.018797021359205246
aF0.06048300862312317
aF0.04817289859056473
aF0.12260033190250397
aF0.004012648016214371
aF0.034774210304021835
aF0.09411107003688812
aF0.022613143548369408
aF0.00857433583587408
aF0.06353221833705902
aF0.07954128086566925
aF0.016237923875451088
aF0.04464062303304672
aF0.06777989864349365
aF0.12416078895330429
aF0.01860453002154827
aF0.04749414697289467
aF0.03429273143410683
aF0.1764833927154541
aF0.013676417991518974
aF0.03382271155714989
aF0.017258623614907265
aF0.06109943985939026
aF0.00807288195937872
aF0.030446641147136688
aF0.04312398284673691
aF0.0167675893753767
aF0.01725715771317482
aF0.08494210243225098
aF0.06134014204144478
aF0.041445542126894
aF0.108635812997818
aF0.018328074365854263
aF0.010515239089727402
aF0.004616244230419397
aF0.03546060994267464
aF0.03250845521688461
aF0.004905380308628082
aF0.0030659346375614405
aF0.006809779442846775
aF0.039393872022628784
asVcheckpoint/checkpoint_train_loss
p50
(lp51
F2.3041746616363525
aF0.09584979712963104
aF0.06940227001905441
aF0.061335381120443344
aF0.05827629566192627
aF0.038059912621974945
asVhyperparams/beta1
p52
(lp53
F0.8999999761581421
aF0.8999999761581421
aF0.8999999761581421
aF0.8999999761581421
aF0.8999999761581421
aF0.8999999761581421
asVcheckpoint/checkpoint_test_loss
p54
(lp55
F2.304405450820923
aF0.11245910823345184
aF0.09426455944776535
aF0.0976477861404419
aF0.11035184562206268
aF0.10517449676990509
asVtime/convergence_iterations
p56
(lp57
F0.0
aF0.0
aF2.0
aF2.0
aF2.0
aF2.0
as.