(dp0
S'checkpoint/checkpoint_steps'
p1
(lp2
I0
aI1
aI2
aI3
aI4
aI5
aI6
aI7
aI8
aI9
aI10
aI11
aI12
aI13
aI14
aI15
aI16
aI17
aI18
aI19
aI20
aI21
aI22
aI23
aI24
aI25
aI26
aI27
aI28
aI29
aI30
aI31
aI32
aI33
aI34
aI35
aI36
aI37
aI38
aI39
aI40
aI41
aI42
aI43
aI44
aI45
aI46
aI47
aI48
aI49
aI50
aI51
aI52
aI53
aI54
aI55
aI56
aI57
aI58
aI59
aI60
aI61
aI62
aI63
aI64
aI65
aI66
aI67
aI68
aI69
aI70
aI71
aI72
aI73
aI74
aI75
aI76
aI77
aI78
aI79
aI80
aI81
aI82
aI83
aI84
aI85
aI86
aI87
aI88
aI89
aI90
aI91
aI92
aI93
aI94
aI95
aI96
aI97
aI98
aI99
aI100
asVcheckpoint/checkpoint_train_acc
p3
(lp4
F0.0
aF0.0
aF0.0
aF0.0
aF0.0
aF0.0
aF0.0
aF0.0
aF0.0
aF0.0
aF0.0
aF0.0
aF0.0
aF0.0
aF0.0
aF0.0
aF0.0
aF0.0
aF0.0
aF0.0
aF0.0
aF0.0
aF0.0
aF0.0
aF0.0
aF0.0
aF0.0
aF0.0
aF0.0
aF0.0
aF0.0
aF0.0
aF0.0
aF0.0
aF0.0
aF0.0
aF0.0
aF0.0
aF0.0
aF0.0
aF0.0
aF0.0
aF0.0
aF0.0
aF0.0
aF0.0
aF0.0
aF0.0
aF0.0
aF0.0
aF0.0
aF0.0
aF0.0
aF0.0
aF0.0
aF0.0
aF0.0
aF0.0
aF0.0
aF0.0
aF0.0
aF0.0
aF0.0
aF0.0
aF0.0
aF0.0
aF0.0
aF0.0
aF0.0
aF0.0
aF0.0
aF0.0
aF0.0
aF0.0
aF0.0
aF0.0
aF0.0
aF0.0
aF0.0
aF0.0
aF0.0
aF0.0
aF0.0
aF0.0
aF0.0
aF0.0
aF0.0
aF0.0
aF0.0
aF0.0
aF0.0
aF0.0
aF0.0
aF0.0
aF0.0
aF0.0
aF0.0
aF0.0
aF0.0
aF0.0
aF0.0
asVtime/percentage_convergence_performance
p5
(lp6
F45.004737854003906
aF5.485281944274902
aF3.8303661346435547
aF3.7389345169067383
aF3.640170097351074
aF3.5147716999053955
aF3.384207010269165
aF3.2564892768859863
aF3.1339197158813477
aF3.016981840133667
aF2.9056270122528076
aF2.79964017868042
aF2.698774576187134
aF2.6027753353118896
aF2.511396646499634
aF2.4244072437286377
aF2.3415820598602295
aF2.262711763381958
aF2.187596559524536
aF2.116046667098999
aF2.047882318496704
aF1.982933521270752
aF1.9210397005081177
aF1.862047791481018
aF1.8058122396469116
aF1.7521966695785522
aF1.7010691165924072
aF1.652307391166687
aF1.6057937145233154
aF1.561417818069458
aF1.519073486328125
aF1.478661298751831
aF1.4400849342346191
aF1.4032562971115112
aF1.368089199066162
aF1.3345022201538086
aF1.3024191856384277
aF1.271767258644104
aF1.2424758672714233
aF1.214480996131897
aF1.1877185106277466
aF1.1621304750442505
aF1.1376601457595825
aF1.1142535209655762
aF1.0918608903884888
aF1.070433259010315
aF1.0499250888824463
aF1.0302932262420654
aF1.0114959478378296
aF0.9934937953948975
aF0.9762500524520874
aF0.9597292542457581
aF0.9438973069190979
aF0.9287220239639282
aF0.9141732454299927
aF0.9002220630645752
aF0.8868409991264343
aF0.874003529548645
aF0.8616849184036255
aF0.8498618006706238
aF0.8385108709335327
aF0.8276115655899048
aF0.8171432018280029
aF0.8070862293243408
aF0.7974219918251038
aF0.7881337404251099
aF0.7792034149169922
aF0.7706162929534912
aF0.7623564004898071
aF0.7544100284576416
aF0.7467623949050903
aF0.7394013404846191
aF0.7323144674301147
aF0.7254889607429504
aF0.7189139127731323
aF0.7125788927078247
aF0.706473171710968
aF0.7005870938301086
aF0.6949112415313721
aF0.6894366145133972
aF0.6841549277305603
aF0.6790580749511719
aF0.6741379499435425
aF0.6693876385688782
aF0.6647998094558716
aF0.6603677868843079
aF0.6560850143432617
aF0.6519456505775452
aF0.6479437351226807
aF0.6440736055374146
aF0.6403303146362305
aF0.6367082595825195
aF0.6332025527954102
aF0.6298089623451233
aF0.6265225410461426
aF0.6233400106430054
aF0.6202561259269714
aF0.6172677874565125
aF0.6143708825111389
aF0.6115618944168091
aF0.6088380217552185
asVcheckpoint/checkpoint_test_acc
p7
(lp8
F0.0
aF0.0
aF0.0
aF0.0
aF0.0
aF0.0
aF0.0
aF0.0
aF0.0
aF0.0
aF0.0
aF0.0
aF0.0
aF0.0
aF0.0
aF0.0
aF0.0
aF0.0
aF0.0
aF0.0
aF0.0
aF0.0
aF0.0
aF0.0
aF0.0
aF0.0
aF0.0
aF0.0
aF0.0
aF0.0
aF0.0
aF0.0
aF0.0
aF0.0
aF0.0
aF0.0
aF0.0
aF0.0
aF0.0
aF0.0
aF0.0
aF0.0
aF0.0
aF0.0
aF0.0
aF0.0
aF0.0
aF0.0
aF0.0
aF0.0
aF0.0
aF0.0
aF0.0
aF0.0
aF0.0
aF0.0
aF0.0
aF0.0
aF0.0
aF0.0
aF0.0
aF0.0
aF0.0
aF0.0
aF0.0
aF0.0
aF0.0
aF0.0
aF0.0
aF0.0
aF0.0
aF0.0
aF0.0
aF0.0
aF0.0
aF0.0
aF0.0
aF0.0
aF0.0
aF0.0
aF0.0
aF0.0
aF0.0
aF0.0
aF0.0
aF0.0
aF0.0
aF0.0
aF0.0
aF0.0
aF0.0
aF0.0
aF0.0
aF0.0
aF0.0
aF0.0
aF0.0
aF0.0
aF0.0
aF0.0
aF0.0
asS'training/training_steps'
p9
(lp10
I1
aI11
aI21
aI31
aI41
aI51
aI61
aI71
aI81
aI91
aI101
aI111
aI121
aI131
aI141
aI151
aI161
aI171
aI181
aI191
aI201
aI211
aI221
aI231
aI241
aI251
aI261
aI271
aI281
aI291
aI301
aI311
aI321
aI331
aI341
aI351
aI361
aI371
aI381
aI391
aI401
aI411
aI421
aI431
aI441
aI451
aI461
aI471
aI481
aI491
aI501
aI511
aI521
aI531
aI541
aI551
aI561
aI571
aI581
aI591
aI601
aI611
aI621
aI631
aI641
aI651
aI661
aI671
aI681
aI691
aI701
aI711
aI721
aI731
aI741
aI751
aI761
aI771
aI781
aI791
asVhyperparams/batch_size
p11
(lp12
F128.0
aF128.0
aF128.0
aF128.0
aF128.0
aF128.0
aF128.0
aF128.0
aF128.0
aF128.0
aF128.0
aF128.0
aF128.0
aF128.0
aF128.0
aF128.0
aF128.0
aF128.0
aF128.0
aF128.0
aF128.0
aF128.0
aF128.0
aF128.0
aF128.0
aF128.0
aF128.0
aF128.0
aF128.0
aF128.0
aF128.0
aF128.0
aF128.0
aF128.0
aF128.0
aF128.0
aF128.0
aF128.0
aF128.0
aF128.0
aF128.0
aF128.0
aF128.0
aF128.0
aF128.0
aF128.0
aF128.0
aF128.0
aF128.0
aF128.0
aF128.0
aF128.0
aF128.0
aF128.0
aF128.0
aF128.0
aF128.0
aF128.0
aF128.0
aF128.0
aF128.0
aF128.0
aF128.0
aF128.0
aF128.0
aF128.0
aF128.0
aF128.0
aF128.0
aF128.0
aF128.0
aF128.0
aF128.0
aF128.0
aF128.0
aF128.0
aF128.0
aF128.0
aF128.0
aF128.0
aF128.0
aF128.0
aF128.0
aF128.0
aF128.0
aF128.0
aF128.0
aF128.0
aF128.0
aF128.0
aF128.0
aF128.0
aF128.0
aF128.0
aF128.0
aF128.0
aF128.0
aF128.0
aF128.0
aF128.0
aF128.0
asS'args'
p13
ccopy_reg
_reconstructor
p14
(cargparse
Namespace
p15
c__builtin__
object
p16
Ntp17
Rp18
(dp19
S'wd'
p20
NsS'data_dir'
p21
S'data'
p22
sS'train_log_interval'
p23
I10
sS'nologs'
p24
I00
sS'num_epochs'
p25
I100
sS'lr_sched_epochs'
p26
NsS'saveto'
p27
S'res/benchmark_small_final/'
p28
sS'lr_sched_factors'
p29
NsS'run_name'
p30
S'SGD/'
p31
sS'checkpoint_epochs'
p32
I1
sS'print_train_iter'
p33
I00
sS'lr'
p34
F0.003981072
sS'bs'
p35
I128
sS'pickle'
p36
I01
sS'random_seed'
p37
I48
sS'no_time'
p38
I00
sS'test_problem'
p39
S'quadratic.noisy_quadratic'
p40
sbsVtraining/training_loss
p41
(lp42
F323.98272705078125
aF36.606407165527344
aF46.193115234375
aF27.87038230895996
aF34.83597183227539
aF30.849943161010742
aF41.64734649658203
aF23.885093688964844
aF30.704341888427734
aF27.22940444946289
aF38.183406829833984
aF20.635696411132812
aF27.455463409423828
aF24.390682220458984
aF35.48149871826172
aF18.09686279296875
aF24.89400863647461
aF22.174259185791016
aF33.36643981933594
aF16.106658935546875
aF22.865201950073242
aF20.43779754638672
aF31.704833984375
aF14.540478706359863
aF21.250381469726562
aF19.072330474853516
aF30.39453887939453
aF13.30291748046875
aF19.95836639404297
aF17.99435806274414
aF29.357168197631836
aF12.320727348327637
aF18.918933868408203
aF17.139789581298828
aF28.532447814941406
aF11.537591934204102
aF18.077913284301758
aF16.459274291992188
aF27.87392807006836
aF10.910103797912598
aF17.393333435058594
aF15.914783477783203
aF27.345726013183594
aF10.40472412109375
aF16.83262825012207
aF15.4769287109375
aF26.92003631591797
aF9.99547004699707
aF16.37044334411621
aF15.122947692871094
aF26.57529067993164
aF9.662164688110352
aF15.986966133117676
aF14.835151672363281
aF26.294681549072266
aF9.38912296295166
aF15.666688919067383
aF14.59977912902832
aF26.065078735351562
aF9.1640625
aF15.397405624389648
aF14.406094551086426
aF25.876224517822266
aF8.977386474609375
aF15.169475555419922
aF14.24567699432373
aF25.720033645629883
aF8.821552276611328
aF14.975278854370117
aF14.111934661865234
aF25.59014129638672
aF8.690605163574219
aF14.808728218078613
aF13.999664306640625
aF25.481517791748047
aF8.579846382141113
aF14.664978981018066
aF13.904762268066406
aF25.390167236328125
aF8.485543251037598
asVcheckpoint/checkpoint_train_loss
p43
(lp44
F327.44549560546875
aF54.86127853393555
aF39.91797637939453
aF38.32206726074219
aF37.44386291503906
aF36.57889175415039
aF35.72758102416992
aF34.907127380371094
aF34.12323760986328
aF33.37649917602539
aF32.66583251953125
aF31.989656448364258
aF31.346294403076172
aF30.734102249145508
aF30.15150260925293
aF29.596988677978516
aF29.06913948059082
aF28.566604614257812
aF28.08810043334961
aF27.63241195678711
aF27.198396682739258
aF26.784955978393555
aF26.391063690185547
aF26.015735626220703
aF25.65804672241211
aF25.31711196899414
aF24.99209976196289
aF24.68221664428711
aF24.386714935302734
aF24.104881286621094
aF23.836040496826172
aF23.57954978942871
aF23.33480453491211
aF23.101224899291992
aF22.878267288208008
aF22.6654109954834
aF22.4621639251709
aF22.26805877685547
aF22.0826473236084
aF21.905517578125
aF21.73626136779785
aF21.574504852294922
aF21.419885635375977
aF21.272056579589844
aF21.13070297241211
aF20.995506286621094
aF20.866178512573242
aF20.742441177368164
aF20.624027252197266
aF20.51068687438965
aF20.402179718017578
aF20.298280715942383
aF20.198774337768555
aF20.10345458984375
aF20.01212501525879
aF19.924602508544922
aF19.840707778930664
aF19.760278701782227
aF19.683151245117188
aF19.609174728393555
aF19.5382080078125
aF19.470108032226562
aF19.404748916625977
aF19.34200668334961
aF19.281761169433594
aF19.22389793395996
aF19.168315887451172
aF19.11490821838379
aF19.063579559326172
aF19.014238357543945
aF18.966796875
aF18.921167373657227
aF18.877273559570312
aF18.835039138793945
aF18.794391632080078
aF18.755260467529297
aF18.717578887939453
aF18.681291580200195
aF18.646331787109375
aF18.612642288208008
aF18.58017349243164
aF18.54886817932129
aF18.518678665161133
aF18.48956298828125
aF18.461467742919922
aF18.434356689453125
aF18.408187866210938
aF18.382917404174805
aF18.358510971069336
aF18.334936141967773
aF18.31215476989746
aF18.290136337280273
aF18.268848419189453
aF18.248262405395508
aF18.228349685668945
aF18.209083557128906
aF18.190439224243164
aF18.17238998413086
aF18.1549129486084
aF18.137989044189453
aF18.12158966064453
asVcheckpoint/checkpoint_test_loss
p45
(lp46
F288.4803771972656
aF35.1606559753418
aF24.55264663696289
aF23.966569900512695
aF23.3334903717041
aF22.529685974121094
aF21.692766189575195
aF20.874095916748047
aF20.088424682617188
aF19.33885383605957
aF18.62506866455078
aF17.945693969726562
aF17.299144744873047
aF16.68379020690918
aF16.098052978515625
aF15.540450096130371
aF15.009541511535645
aF14.503982543945312
aF14.022493362426758
aF13.563858985900879
aF13.12692642211914
aF12.710603713989258
aF12.313864707946777
aF11.935726165771484
aF11.57525634765625
aF11.23158073425293
aF10.903853416442871
aF10.591290473937988
aF10.293137550354004
aF10.008687973022461
aF9.737260818481445
aF9.478219032287598
aF9.230944633483887
aF8.994873046875
aF8.769452095031738
aF8.554159164428711
aF8.348506927490234
aF8.15202808380127
aF7.964270114898682
aF7.784822940826416
aF7.61327600479126
aF7.449256420135498
aF7.292401313781738
aF7.142364978790283
aF6.998827934265137
aF6.861476898193359
aF6.730019569396973
aF6.604179382324219
aF6.483688831329346
aF6.368295192718506
aF6.257762908935547
aF6.151864528656006
aF6.050381660461426
aF5.953108310699463
aF5.8598504066467285
aF5.770423412322998
aF5.684650897979736
aF5.602362632751465
aF5.52340030670166
aF5.4476141929626465
aF5.374854564666748
aF5.304990291595459
aF5.237887859344482
aF5.173422813415527
aF5.111474990844727
aF5.051937103271484
aF4.994693756103516
aF4.939650535583496
aF4.886704444885254
aF4.835768222808838
aF4.786746978759766
aF4.739562511444092
aF4.694135665893555
aF4.650384426116943
aF4.608238220214844
aF4.567630767822266
aF4.5284929275512695
aF4.490763187408447
aF4.454380989074707
aF4.419288635253906
aF4.385433197021484
aF4.352762222290039
aF4.321224212646484
aF4.290774822235107
aF4.261366844177246
aF4.232957363128662
aF4.205504894256592
aF4.178971767425537
aF4.153319358825684
aF4.128511905670166
aF4.104517459869385
aF4.081299781799316
aF4.058828353881836
aF4.037075519561768
aF4.016009330749512
aF3.9956092834472656
aF3.975841760635376
aF3.956686496734619
aF3.938117265701294
aF3.920111894607544
aF3.902651786804199
asVhyperparams/learning_rate
p47
(lp48
F0.00398107198998332
aF0.00398107198998332
aF0.00398107198998332
aF0.00398107198998332
aF0.00398107198998332
aF0.00398107198998332
aF0.00398107198998332
aF0.00398107198998332
aF0.00398107198998332
aF0.00398107198998332
aF0.00398107198998332
aF0.00398107198998332
aF0.00398107198998332
aF0.00398107198998332
aF0.00398107198998332
aF0.00398107198998332
aF0.00398107198998332
aF0.00398107198998332
aF0.00398107198998332
aF0.00398107198998332
aF0.00398107198998332
aF0.00398107198998332
aF0.00398107198998332
aF0.00398107198998332
aF0.00398107198998332
aF0.00398107198998332
aF0.00398107198998332
aF0.00398107198998332
aF0.00398107198998332
aF0.00398107198998332
aF0.00398107198998332
aF0.00398107198998332
aF0.00398107198998332
aF0.00398107198998332
aF0.00398107198998332
aF0.00398107198998332
aF0.00398107198998332
aF0.00398107198998332
aF0.00398107198998332
aF0.00398107198998332
aF0.00398107198998332
aF0.00398107198998332
aF0.00398107198998332
aF0.00398107198998332
aF0.00398107198998332
aF0.00398107198998332
aF0.00398107198998332
aF0.00398107198998332
aF0.00398107198998332
aF0.00398107198998332
aF0.00398107198998332
aF0.00398107198998332
aF0.00398107198998332
aF0.00398107198998332
aF0.00398107198998332
aF0.00398107198998332
aF0.00398107198998332
aF0.00398107198998332
aF0.00398107198998332
aF0.00398107198998332
aF0.00398107198998332
aF0.00398107198998332
aF0.00398107198998332
aF0.00398107198998332
aF0.00398107198998332
aF0.00398107198998332
aF0.00398107198998332
aF0.00398107198998332
aF0.00398107198998332
aF0.00398107198998332
aF0.00398107198998332
aF0.00398107198998332
aF0.00398107198998332
aF0.00398107198998332
aF0.00398107198998332
aF0.00398107198998332
aF0.00398107198998332
aF0.00398107198998332
aF0.00398107198998332
aF0.00398107198998332
aF0.00398107198998332
aF0.00398107198998332
aF0.00398107198998332
aF0.00398107198998332
aF0.00398107198998332
aF0.00398107198998332
aF0.00398107198998332
aF0.00398107198998332
aF0.00398107198998332
aF0.00398107198998332
aF0.00398107198998332
aF0.00398107198998332
aF0.00398107198998332
aF0.00398107198998332
aF0.00398107198998332
aF0.00398107198998332
aF0.00398107198998332
aF0.00398107198998332
aF0.00398107198998332
aF0.00398107198998332
aF0.00398107198998332
asVtime/convergence_iterations
p49
(lp50
F0.0
aF0.0
aF0.0
aF0.0
aF0.0
aF0.0
aF0.0
aF0.0
aF0.0
aF0.0
aF0.0
aF0.0
aF0.0
aF0.0
aF0.0
aF0.0
aF0.0
aF0.0
aF0.0
aF0.0
aF0.0
aF0.0
aF0.0
aF0.0
aF0.0
aF0.0
aF0.0
aF0.0
aF0.0
aF0.0
aF0.0
aF0.0
aF0.0
aF0.0
aF0.0
aF0.0
aF0.0
aF0.0
aF0.0
aF0.0
aF0.0
aF0.0
aF0.0
aF0.0
aF0.0
aF0.0
aF0.0
aF0.0
aF0.0
aF49.0
aF49.0
aF49.0
aF49.0
aF49.0
aF49.0
aF49.0
aF49.0
aF49.0
aF49.0
aF49.0
aF49.0
aF49.0
aF49.0
aF49.0
aF49.0
aF49.0
aF49.0
aF49.0
aF49.0
aF49.0
aF49.0
aF49.0
aF49.0
aF49.0
aF49.0
aF49.0
aF49.0
aF49.0
aF49.0
aF49.0
aF49.0
aF49.0
aF49.0
aF49.0
aF49.0
aF49.0
aF49.0
aF49.0
aF49.0
aF49.0
aF49.0
aF49.0
aF49.0
aF49.0
aF49.0
aF49.0
aF49.0
aF49.0
aF49.0
aF49.0
aF49.0
as.