(dp0
S'checkpoint/checkpoint_steps'
p1
(lp2
I0
aI1
aI2
aI3
aI4
aI5
aI6
aI7
aI8
aI9
aI10
aI11
aI12
aI13
aI14
aI15
aI16
aI17
aI18
aI19
aI20
aI21
aI22
aI23
aI24
aI25
aI26
aI27
aI28
aI29
aI30
aI31
aI32
aI33
aI34
aI35
aI36
aI37
aI38
aI39
aI40
aI41
aI42
aI43
aI44
aI45
aI46
aI47
aI48
aI49
aI50
aI51
aI52
aI53
aI54
aI55
aI56
aI57
aI58
aI59
aI60
aI61
aI62
aI63
aI64
aI65
aI66
aI67
aI68
aI69
aI70
aI71
aI72
aI73
aI74
aI75
aI76
aI77
aI78
aI79
aI80
aI81
aI82
aI83
aI84
aI85
aI86
aI87
aI88
aI89
aI90
aI91
aI92
aI93
aI94
aI95
aI96
aI97
aI98
aI99
aI100
asVcheckpoint/checkpoint_train_acc
p3
(lp4
F0.0
aF0.0
aF0.0
aF0.0
aF0.0
aF0.0
aF0.0
aF0.0
aF0.0
aF0.0
aF0.0
aF0.0
aF0.0
aF0.0
aF0.0
aF0.0
aF0.0
aF0.0
aF0.0
aF0.0
aF0.0
aF0.0
aF0.0
aF0.0
aF0.0
aF0.0
aF0.0
aF0.0
aF0.0
aF0.0
aF0.0
aF0.0
aF0.0
aF0.0
aF0.0
aF0.0
aF0.0
aF0.0
aF0.0
aF0.0
aF0.0
aF0.0
aF0.0
aF0.0
aF0.0
aF0.0
aF0.0
aF0.0
aF0.0
aF0.0
aF0.0
aF0.0
aF0.0
aF0.0
aF0.0
aF0.0
aF0.0
aF0.0
aF0.0
aF0.0
aF0.0
aF0.0
aF0.0
aF0.0
aF0.0
aF0.0
aF0.0
aF0.0
aF0.0
aF0.0
aF0.0
aF0.0
aF0.0
aF0.0
aF0.0
aF0.0
aF0.0
aF0.0
aF0.0
aF0.0
aF0.0
aF0.0
aF0.0
aF0.0
aF0.0
aF0.0
aF0.0
aF0.0
aF0.0
aF0.0
aF0.0
aF0.0
aF0.0
aF0.0
aF0.0
aF0.0
aF0.0
aF0.0
aF0.0
aF0.0
aF0.0
asVtime/percentage_convergence_performance
p5
(lp6
F53.226463317871094
aF5.197322845458984
aF3.9933745861053467
aF3.888570547103882
aF3.75797438621521
aF3.61159610748291
aF3.4656295776367188
aF3.3250129222869873
aF3.1908867359161377
aF3.063314437866211
aF2.942073345184326
aF2.82686185836792
aF2.717383861541748
aF2.613345146179199
aF2.514462947845459
aF2.4204750061035156
aF2.331129312515259
aF2.2461888790130615
aF2.1654245853424072
aF2.0886268615722656
aF2.0155906677246094
aF1.946123480796814
aF1.880043625831604
aF1.8171780109405518
aF1.7573648691177368
aF1.700447916984558
aF1.64628005027771
aF1.5947221517562866
aF1.5456420183181763
aF1.4989144802093506
aF1.4544204473495483
aF1.4120475053787231
aF1.371690034866333
aF1.3332451581954956
aF1.2966173887252808
aF1.2617161273956299
aF1.2284544706344604
aF1.1967501640319824
aF1.1665276288986206
aF1.1377102136611938
aF1.1102300882339478
aF1.0840210914611816
aF1.0590181350708008
aF1.0351632833480835
aF1.0124000310897827
aF0.990673840045929
aF0.9699341058731079
aF0.9501328468322754
aF0.9312231540679932
aF0.9131620526313782
aF0.8959077000617981
aF0.8794211745262146
aF0.8636650443077087
aF0.8486043810844421
aF0.834204912185669
aF0.8204355835914612
aF0.8072652220726013
aF0.7946656346321106
aF0.7826088070869446
aF0.7710686922073364
aF0.760021448135376
aF0.7494434714317322
aF0.7393122911453247
aF0.7296066284179688
aF0.7203065156936646
aF0.7113927602767944
aF0.702847421169281
aF0.6946535706520081
aF0.6867942214012146
aF0.6792538166046143
aF0.6720179915428162
aF0.665071964263916
aF0.6584032773971558
aF0.6519985198974609
aF0.6458459496498108
aF0.6399338245391846
aF0.634250819683075
aF0.6287875771522522
aF0.623533308506012
aF0.6184784173965454
aF0.6136146783828735
aF0.60893315076828
aF0.6044257879257202
aF0.6000845432281494
aF0.5959024429321289
aF0.5918727517127991
aF0.587988018989563
aF0.584242582321167
aF0.5806299448013306
aF0.5771444439888
aF0.5737804174423218
aF0.5705332159996033
aF0.5673969984054565
aF0.5643678903579712
aF0.5614410638809204
aF0.5586115717887878
aF0.5558757185935974
aF0.5532301068305969
aF0.5506703853607178
aF0.5481933355331421
aF0.5457953810691833
asVcheckpoint/checkpoint_test_acc
p7
(lp8
F0.0
aF0.0
aF0.0
aF0.0
aF0.0
aF0.0
aF0.0
aF0.0
aF0.0
aF0.0
aF0.0
aF0.0
aF0.0
aF0.0
aF0.0
aF0.0
aF0.0
aF0.0
aF0.0
aF0.0
aF0.0
aF0.0
aF0.0
aF0.0
aF0.0
aF0.0
aF0.0
aF0.0
aF0.0
aF0.0
aF0.0
aF0.0
aF0.0
aF0.0
aF0.0
aF0.0
aF0.0
aF0.0
aF0.0
aF0.0
aF0.0
aF0.0
aF0.0
aF0.0
aF0.0
aF0.0
aF0.0
aF0.0
aF0.0
aF0.0
aF0.0
aF0.0
aF0.0
aF0.0
aF0.0
aF0.0
aF0.0
aF0.0
aF0.0
aF0.0
aF0.0
aF0.0
aF0.0
aF0.0
aF0.0
aF0.0
aF0.0
aF0.0
aF0.0
aF0.0
aF0.0
aF0.0
aF0.0
aF0.0
aF0.0
aF0.0
aF0.0
aF0.0
aF0.0
aF0.0
aF0.0
aF0.0
aF0.0
aF0.0
aF0.0
aF0.0
aF0.0
aF0.0
aF0.0
aF0.0
aF0.0
aF0.0
aF0.0
aF0.0
aF0.0
aF0.0
aF0.0
aF0.0
aF0.0
aF0.0
aF0.0
asS'training/training_steps'
p9
(lp10
I1
aI11
aI21
aI31
aI41
aI51
aI61
aI71
aI81
aI91
aI101
aI111
aI121
aI131
aI141
aI151
aI161
aI171
aI181
aI191
aI201
aI211
aI221
aI231
aI241
aI251
aI261
aI271
aI281
aI291
aI301
aI311
aI321
aI331
aI341
aI351
aI361
aI371
aI381
aI391
aI401
aI411
aI421
aI431
aI441
aI451
aI461
aI471
aI481
aI491
aI501
aI511
aI521
aI531
aI541
aI551
aI561
aI571
aI581
aI591
aI601
aI611
aI621
aI631
aI641
aI651
aI661
aI671
aI681
aI691
aI701
aI711
aI721
aI731
aI741
aI751
aI761
aI771
aI781
aI791
asVhyperparams/batch_size
p11
(lp12
F128.0
aF128.0
aF128.0
aF128.0
aF128.0
aF128.0
aF128.0
aF128.0
aF128.0
aF128.0
aF128.0
aF128.0
aF128.0
aF128.0
aF128.0
aF128.0
aF128.0
aF128.0
aF128.0
aF128.0
aF128.0
aF128.0
aF128.0
aF128.0
aF128.0
aF128.0
aF128.0
aF128.0
aF128.0
aF128.0
aF128.0
aF128.0
aF128.0
aF128.0
aF128.0
aF128.0
aF128.0
aF128.0
aF128.0
aF128.0
aF128.0
aF128.0
aF128.0
aF128.0
aF128.0
aF128.0
aF128.0
aF128.0
aF128.0
aF128.0
aF128.0
aF128.0
aF128.0
aF128.0
aF128.0
aF128.0
aF128.0
aF128.0
aF128.0
aF128.0
aF128.0
aF128.0
aF128.0
aF128.0
aF128.0
aF128.0
aF128.0
aF128.0
aF128.0
aF128.0
aF128.0
aF128.0
aF128.0
aF128.0
aF128.0
aF128.0
aF128.0
aF128.0
aF128.0
aF128.0
aF128.0
aF128.0
aF128.0
aF128.0
aF128.0
aF128.0
aF128.0
aF128.0
aF128.0
aF128.0
aF128.0
aF128.0
aF128.0
aF128.0
aF128.0
aF128.0
aF128.0
aF128.0
aF128.0
aF128.0
aF128.0
asS'args'
p13
ccopy_reg
_reconstructor
p14
(cargparse
Namespace
p15
c__builtin__
object
p16
Ntp17
Rp18
(dp19
S'wd'
p20
NsS'data_dir'
p21
S'data'
p22
sS'train_log_interval'
p23
I10
sS'nologs'
p24
I00
sS'num_epochs'
p25
I100
sS'lr_sched_epochs'
p26
NsS'saveto'
p27
S'res/benchmark_small_final/'
p28
sS'lr_sched_factors'
p29
NsS'run_name'
p30
S'SGD/'
p31
sS'checkpoint_epochs'
p32
I1
sS'print_train_iter'
p33
I00
sS'lr'
p34
F0.003981072
sS'bs'
p35
I128
sS'pickle'
p36
I01
sS'random_seed'
p37
I50
sS'no_time'
p38
I00
sS'test_problem'
p39
S'quadratic.noisy_quadratic'
p40
sbsVtraining/training_loss
p41
(lp42
F453.1230773925781
aF33.160247802734375
aF39.438114166259766
aF37.32986831665039
aF39.87248992919922
aF27.71419906616211
aF35.11874771118164
aF32.991424560546875
aF35.17933654785156
aF23.685237884521484
aF31.20343780517578
aF29.471038818359375
aF31.538997650146484
aF20.55725860595703
aF28.15326499938965
aF26.74547576904297
aF28.68476104736328
aF18.13009262084961
aF25.770984649658203
aF24.630504608154297
aF26.438737869262695
aF16.242019653320312
aF23.904083251953125
aF22.985015869140625
aF24.66442108154297
aF14.769259452819824
aF22.435697555541992
aF21.70104217529297
aF23.256858825683594
aF13.617053031921387
aF21.27617073059082
aF20.69593048095703
aF22.13522720336914
aF12.712709426879883
aF20.356609344482422
aF19.90628433227539
aF21.23717498779297
aF12.000438690185547
aF19.623981475830078
aF19.283462524414062
aF20.51450538635254
aF11.437314987182617
aF19.03740119934082
aF18.79007911682129
aF19.92983627319336
aF10.9902982711792
aF18.565292358398438
aF18.397327423095703
aF19.454177856445312
aF10.633892059326172
aF18.18320655822754
aF18.083053588867188
aF19.0649356842041
aF10.348380088806152
aF17.872177124023438
aF17.83008575439453
aF18.744483947753906
aF10.118526458740234
aF17.617454528808594
aF17.625200271606445
aF18.47902488708496
aF9.932475090026855
aF17.40753173828125
aF17.458118438720703
aF18.25770378112793
aF9.781049728393555
aF17.23342514038086
aF17.32086944580078
aF18.07200050354004
aF9.657051086425781
aF17.088069915771484
aF17.207244873046875
aF17.915164947509766
aF9.554885864257812
aF16.965927124023438
aF17.112424850463867
aF17.78183364868164
aF9.470161437988281
aF16.862613677978516
aF17.032604217529297
asVcheckpoint/checkpoint_train_loss
p43
(lp44
F379.962158203125
aF53.13385009765625
aF41.31536865234375
aF39.62626266479492
aF38.51277542114258
aF37.491580963134766
aF36.52574157714844
aF35.60898208618164
aF34.7381706237793
aF33.910789489746094
aF33.12455368041992
aF32.377349853515625
aF31.66715431213379
aF30.992069244384766
aF30.35029411315918
aF29.740116119384766
aF29.15992546081543
aF28.60818099975586
aF28.083431243896484
aF27.58429718017578
aF27.109477996826172
aF26.657730102539062
aF26.22789192199707
aF25.8188419342041
aF25.42952537536621
aF25.058950424194336
aF24.706165313720703
aF24.370269775390625
aF24.050416946411133
aF23.745800018310547
aF23.45564842224121
aF23.179237365722656
aF22.915884017944336
aF22.66493034362793
aF22.425756454467773
aF22.197778701782227
aF21.98043441772461
aF21.77320098876953
aF21.575572967529297
aF21.38707733154297
aF21.20726203918457
aF21.03569793701172
aF20.871976852416992
aF20.715713500976562
aF20.566543579101562
aF20.42412567138672
aF20.28812026977539
aF20.158220291137695
aF20.03412437438965
aF19.91555404663086
aF19.8022403717041
aF19.693927764892578
aF19.590377807617188
aF19.491357803344727
aF19.39665412902832
aF19.30605697631836
aF19.219369888305664
aF19.136409759521484
aF19.056997299194336
aF18.9809627532959
aF18.908145904541016
aF18.838397979736328
aF18.77157211303711
aF18.707530975341797
aF18.646146774291992
aF18.58729362487793
aF18.530851364135742
aF18.476715087890625
aF18.42477035522461
aF18.37491798400879
aF18.327064514160156
aF18.281116485595703
aF18.23698616027832
aF18.19459342956543
aF18.153850555419922
aF18.11469841003418
aF18.077049255371094
aF18.04084587097168
aF18.00602149963379
aF17.972511291503906
aF17.940258026123047
aF17.909208297729492
aF17.87930679321289
aF17.85050392150879
aF17.8227481842041
aF17.796001434326172
aF17.770214080810547
aF17.745344161987305
aF17.72135353088379
aF17.698204040527344
aF17.675861358642578
aF17.654293060302734
aF17.63345718383789
aF17.613332748413086
aF17.59388542175293
aF17.57508659362793
aF17.55691146850586
aF17.539329528808594
aF17.522323608398438
aF17.5058650970459
aF17.48993492126465
asVcheckpoint/checkpoint_test_loss
p45
(lp46
F341.181640625
aF33.31483840942383
aF25.597530364990234
aF24.925737380981445
aF24.08861541748047
aF23.150331497192383
aF22.214685440063477
aF21.31333351135254
aF20.453584671020508
aF19.635845184326172
aF18.85869026184082
aF18.12018394470215
aF17.41843032836914
aF16.751543045043945
aF16.117708206176758
aF15.51524543762207
aF14.94253921508789
aF14.398070335388184
aF13.880372047424316
aF13.38809871673584
aF12.919936180114746
aF12.474651336669922
aF12.051079750061035
aF11.648111343383789
aF11.264708518981934
aF10.899870872497559
aF10.552655220031738
aF10.222168922424316
aF9.907565116882324
aF9.608041763305664
aF9.322834968566895
aF9.051224708557129
aF8.792532920837402
aF8.546101570129395
aF8.311317443847656
aF8.087600708007812
aF7.874393463134766
aF7.671168804168701
aF7.477441787719727
aF7.292722702026367
aF7.116575241088867
aF6.948575019836426
aF6.78830623626709
aF6.635396957397461
aF6.489483833312988
aF6.350219249725342
aF6.217277526855469
aF6.090351581573486
aF5.969140529632568
aF5.853368759155273
aF5.742768287658691
aF5.637089729309082
aF5.536092758178711
aF5.439554214477539
aF5.347253322601318
aF5.2589921951293945
aF5.174570083618164
aF5.093806743621826
aF5.016522407531738
aF4.942550182342529
aF4.871737480163574
aF4.8039326667785645
aF4.738991737365723
aF4.676778316497803
aF4.617164611816406
aF4.560027599334717
aF4.505251884460449
aF4.452729225158691
aF4.402350902557373
aF4.3540167808532715
aF4.307635307312012
aF4.263111114501953
aF4.220365047454834
aF4.179310321807861
aF4.1398725509643555
aF4.101975917816162
aF4.065547943115234
aF4.030528545379639
aF3.9968485832214355
aF3.964446544647217
aF3.933270215988159
aF3.903261423110962
aF3.8743693828582764
aF3.8465418815612793
aF3.819734811782837
aF3.7939043045043945
aF3.769003391265869
aF3.744994878768921
aF3.7218377590179443
aF3.699496030807495
aF3.6779325008392334
aF3.657118082046509
aF3.637014865875244
aF3.617598295211792
aF3.59883713722229
aF3.580700159072876
aF3.5631632804870605
aF3.5462050437927246
aF3.529797315597534
aF3.5139191150665283
aF3.4985482692718506
asVhyperparams/learning_rate
p47
(lp48
F0.00398107198998332
aF0.00398107198998332
aF0.00398107198998332
aF0.00398107198998332
aF0.00398107198998332
aF0.00398107198998332
aF0.00398107198998332
aF0.00398107198998332
aF0.00398107198998332
aF0.00398107198998332
aF0.00398107198998332
aF0.00398107198998332
aF0.00398107198998332
aF0.00398107198998332
aF0.00398107198998332
aF0.00398107198998332
aF0.00398107198998332
aF0.00398107198998332
aF0.00398107198998332
aF0.00398107198998332
aF0.00398107198998332
aF0.00398107198998332
aF0.00398107198998332
aF0.00398107198998332
aF0.00398107198998332
aF0.00398107198998332
aF0.00398107198998332
aF0.00398107198998332
aF0.00398107198998332
aF0.00398107198998332
aF0.00398107198998332
aF0.00398107198998332
aF0.00398107198998332
aF0.00398107198998332
aF0.00398107198998332
aF0.00398107198998332
aF0.00398107198998332
aF0.00398107198998332
aF0.00398107198998332
aF0.00398107198998332
aF0.00398107198998332
aF0.00398107198998332
aF0.00398107198998332
aF0.00398107198998332
aF0.00398107198998332
aF0.00398107198998332
aF0.00398107198998332
aF0.00398107198998332
aF0.00398107198998332
aF0.00398107198998332
aF0.00398107198998332
aF0.00398107198998332
aF0.00398107198998332
aF0.00398107198998332
aF0.00398107198998332
aF0.00398107198998332
aF0.00398107198998332
aF0.00398107198998332
aF0.00398107198998332
aF0.00398107198998332
aF0.00398107198998332
aF0.00398107198998332
aF0.00398107198998332
aF0.00398107198998332
aF0.00398107198998332
aF0.00398107198998332
aF0.00398107198998332
aF0.00398107198998332
aF0.00398107198998332
aF0.00398107198998332
aF0.00398107198998332
aF0.00398107198998332
aF0.00398107198998332
aF0.00398107198998332
aF0.00398107198998332
aF0.00398107198998332
aF0.00398107198998332
aF0.00398107198998332
aF0.00398107198998332
aF0.00398107198998332
aF0.00398107198998332
aF0.00398107198998332
aF0.00398107198998332
aF0.00398107198998332
aF0.00398107198998332
aF0.00398107198998332
aF0.00398107198998332
aF0.00398107198998332
aF0.00398107198998332
aF0.00398107198998332
aF0.00398107198998332
aF0.00398107198998332
aF0.00398107198998332
aF0.00398107198998332
aF0.00398107198998332
aF0.00398107198998332
aF0.00398107198998332
aF0.00398107198998332
aF0.00398107198998332
aF0.00398107198998332
aF0.00398107198998332
asVtime/convergence_iterations
p49
(lp50
F0.0
aF0.0
aF0.0
aF0.0
aF0.0
aF0.0
aF0.0
aF0.0
aF0.0
aF0.0
aF0.0
aF0.0
aF0.0
aF0.0
aF0.0
aF0.0
aF0.0
aF0.0
aF0.0
aF0.0
aF0.0
aF0.0
aF0.0
aF0.0
aF0.0
aF0.0
aF0.0
aF0.0
aF0.0
aF0.0
aF0.0
aF0.0
aF0.0
aF0.0
aF0.0
aF0.0
aF0.0
aF0.0
aF0.0
aF0.0
aF0.0
aF0.0
aF0.0
aF0.0
aF0.0
aF45.0
aF45.0
aF45.0
aF45.0
aF45.0
aF45.0
aF45.0
aF45.0
aF45.0
aF45.0
aF45.0
aF45.0
aF45.0
aF45.0
aF45.0
aF45.0
aF45.0
aF45.0
aF45.0
aF45.0
aF45.0
aF45.0
aF45.0
aF45.0
aF45.0
aF45.0
aF45.0
aF45.0
aF45.0
aF45.0
aF45.0
aF45.0
aF45.0
aF45.0
aF45.0
aF45.0
aF45.0
aF45.0
aF45.0
aF45.0
aF45.0
aF45.0
aF45.0
aF45.0
aF45.0
aF45.0
aF45.0
aF45.0
aF45.0
aF45.0
aF45.0
aF45.0
aF45.0
aF45.0
aF45.0
aF45.0
as.