(dp0
S'checkpoint/checkpoint_steps'
p1
(lp2
I0
aI1
aI2
aI3
aI4
aI5
aI6
aI7
aI8
aI9
aI10
aI11
aI12
aI13
aI14
aI15
aI16
aI17
aI18
aI19
aI20
aI21
aI22
aI23
aI24
aI25
aI26
aI27
aI28
aI29
aI30
aI31
aI32
aI33
aI34
aI35
aI36
aI37
aI38
aI39
aI40
aI41
aI42
aI43
aI44
aI45
aI46
aI47
aI48
aI49
aI50
aI51
aI52
aI53
aI54
aI55
aI56
aI57
aI58
aI59
aI60
aI61
aI62
aI63
aI64
aI65
aI66
aI67
aI68
aI69
aI70
aI71
aI72
aI73
aI74
aI75
aI76
aI77
aI78
aI79
aI80
aI81
aI82
aI83
aI84
aI85
aI86
aI87
aI88
aI89
aI90
aI91
aI92
aI93
aI94
aI95
aI96
aI97
aI98
aI99
aI100
asVcheckpoint/checkpoint_train_acc
p3
(lp4
F0.0
aF0.0
aF0.0
aF0.0
aF0.0
aF0.0
aF0.0
aF0.0
aF0.0
aF0.0
aF0.0
aF0.0
aF0.0
aF0.0
aF0.0
aF0.0
aF0.0
aF0.0
aF0.0
aF0.0
aF0.0
aF0.0
aF0.0
aF0.0
aF0.0
aF0.0
aF0.0
aF0.0
aF0.0
aF0.0
aF0.0
aF0.0
aF0.0
aF0.0
aF0.0
aF0.0
aF0.0
aF0.0
aF0.0
aF0.0
aF0.0
aF0.0
aF0.0
aF0.0
aF0.0
aF0.0
aF0.0
aF0.0
aF0.0
aF0.0
aF0.0
aF0.0
aF0.0
aF0.0
aF0.0
aF0.0
aF0.0
aF0.0
aF0.0
aF0.0
aF0.0
aF0.0
aF0.0
aF0.0
aF0.0
aF0.0
aF0.0
aF0.0
aF0.0
aF0.0
aF0.0
aF0.0
aF0.0
aF0.0
aF0.0
aF0.0
aF0.0
aF0.0
aF0.0
aF0.0
aF0.0
aF0.0
aF0.0
aF0.0
aF0.0
aF0.0
aF0.0
aF0.0
aF0.0
aF0.0
aF0.0
aF0.0
aF0.0
aF0.0
aF0.0
aF0.0
aF0.0
aF0.0
aF0.0
aF0.0
aF0.0
asVtime/percentage_convergence_performance
p5
(lp6
F44.04540252685547
aF4.302816867828369
aF2.426136016845703
aF2.350391149520874
aF2.3048272132873535
aF2.2415854930877686
aF2.174001455307007
aF2.1072497367858887
aF2.0427324771881104
aF1.9807522296905518
aF1.9212985038757324
aF1.8642863035202026
aF1.809615969657898
aF1.757180094718933
aF1.7068780660629272
aF1.658615231513977
aF1.6122968196868896
aF1.5678359270095825
aF1.5251524448394775
aF1.4841631650924683
aF1.4447933435440063
aF1.4069726467132568
aF1.3706305027008057
aF1.3357020616531372
aF1.3021258115768433
aF1.2698415517807007
aF1.2387943267822266
aF1.208927869796753
aF1.180193543434143
aF1.1525405645370483
aF1.1259223222732544
aF1.1002957820892334
aF1.0756170749664307
aF1.0518463850021362
aF1.028945803642273
aF1.0068777799606323
aF0.985607385635376
aF0.965101420879364
aF0.9453284740447998
aF0.9262562990188599
aF0.9078574180603027
aF0.8901034593582153
aF0.8729680180549622
aF0.8564255833625793
aF0.8404516577720642
aF0.8250243067741394
aF0.8101212382316589
aF0.7957204580307007
aF0.7818028926849365
aF0.768347442150116
aF0.755338191986084
aF0.7427563071250916
aF0.7305850386619568
aF0.7188085317611694
aF0.7074102163314819
aF0.6963782906532288
aF0.6856949329376221
aF0.675349235534668
aF0.6653282642364502
aF0.65561842918396
aF0.6462082862854004
aF0.6370871067047119
aF0.628244936466217
aF0.6196689009666443
aF0.6113510727882385
aF0.603280782699585
aF0.595450758934021
aF0.5878497958183289
aF0.5804710388183594
aF0.5733070969581604
aF0.566348135471344
aF0.5595881342887878
aF0.5530206561088562
aF0.5466371774673462
aF0.5404329299926758
aF0.5344005823135376
aF0.5285348892211914
aF0.522828996181488
aF0.5172781348228455
aF0.5118775367736816
aF0.5066213011741638
aF0.5015044212341309
aF0.49652305245399475
aF0.4916714131832123
aF0.4869465231895447
aF0.48234328627586365
aF0.47785788774490356
aF0.4734865427017212
aF0.4692256450653076
aF0.4650721251964569
aF0.461021363735199
aF0.45707109570503235
aF0.453217089176178
aF0.44945743680000305
aF0.44578805565834045
aF0.4422076940536499
aF0.438711941242218
aF0.4352993667125702
aF0.43196630477905273
aF0.4287111163139343
aF0.4255314767360687
asVcheckpoint/checkpoint_test_acc
p7
(lp8
F0.0
aF0.0
aF0.0
aF0.0
aF0.0
aF0.0
aF0.0
aF0.0
aF0.0
aF0.0
aF0.0
aF0.0
aF0.0
aF0.0
aF0.0
aF0.0
aF0.0
aF0.0
aF0.0
aF0.0
aF0.0
aF0.0
aF0.0
aF0.0
aF0.0
aF0.0
aF0.0
aF0.0
aF0.0
aF0.0
aF0.0
aF0.0
aF0.0
aF0.0
aF0.0
aF0.0
aF0.0
aF0.0
aF0.0
aF0.0
aF0.0
aF0.0
aF0.0
aF0.0
aF0.0
aF0.0
aF0.0
aF0.0
aF0.0
aF0.0
aF0.0
aF0.0
aF0.0
aF0.0
aF0.0
aF0.0
aF0.0
aF0.0
aF0.0
aF0.0
aF0.0
aF0.0
aF0.0
aF0.0
aF0.0
aF0.0
aF0.0
aF0.0
aF0.0
aF0.0
aF0.0
aF0.0
aF0.0
aF0.0
aF0.0
aF0.0
aF0.0
aF0.0
aF0.0
aF0.0
aF0.0
aF0.0
aF0.0
aF0.0
aF0.0
aF0.0
aF0.0
aF0.0
aF0.0
aF0.0
aF0.0
aF0.0
aF0.0
aF0.0
aF0.0
aF0.0
aF0.0
aF0.0
aF0.0
aF0.0
aF0.0
asS'training/training_steps'
p9
(lp10
I1
aI11
aI21
aI31
aI41
aI51
aI61
aI71
aI81
aI91
aI101
aI111
aI121
aI131
aI141
aI151
aI161
aI171
aI181
aI191
aI201
aI211
aI221
aI231
aI241
aI251
aI261
aI271
aI281
aI291
aI301
aI311
aI321
aI331
aI341
aI351
aI361
aI371
aI381
aI391
aI401
aI411
aI421
aI431
aI441
aI451
aI461
aI471
aI481
aI491
aI501
aI511
aI521
aI531
aI541
aI551
aI561
aI571
aI581
aI591
aI601
aI611
aI621
aI631
aI641
aI651
aI661
aI671
aI681
aI691
aI701
aI711
aI721
aI731
aI741
aI751
aI761
aI771
aI781
aI791
asVhyperparams/batch_size
p11
(lp12
F128.0
aF128.0
aF128.0
aF128.0
aF128.0
aF128.0
aF128.0
aF128.0
aF128.0
aF128.0
aF128.0
aF128.0
aF128.0
aF128.0
aF128.0
aF128.0
aF128.0
aF128.0
aF128.0
aF128.0
aF128.0
aF128.0
aF128.0
aF128.0
aF128.0
aF128.0
aF128.0
aF128.0
aF128.0
aF128.0
aF128.0
aF128.0
aF128.0
aF128.0
aF128.0
aF128.0
aF128.0
aF128.0
aF128.0
aF128.0
aF128.0
aF128.0
aF128.0
aF128.0
aF128.0
aF128.0
aF128.0
aF128.0
aF128.0
aF128.0
aF128.0
aF128.0
aF128.0
aF128.0
aF128.0
aF128.0
aF128.0
aF128.0
aF128.0
aF128.0
aF128.0
aF128.0
aF128.0
aF128.0
aF128.0
aF128.0
aF128.0
aF128.0
aF128.0
aF128.0
aF128.0
aF128.0
aF128.0
aF128.0
aF128.0
aF128.0
aF128.0
aF128.0
aF128.0
aF128.0
aF128.0
aF128.0
aF128.0
aF128.0
aF128.0
aF128.0
aF128.0
aF128.0
aF128.0
aF128.0
aF128.0
aF128.0
aF128.0
aF128.0
aF128.0
aF128.0
aF128.0
aF128.0
aF128.0
aF128.0
aF128.0
asS'args'
p13
ccopy_reg
_reconstructor
p14
(cargparse
Namespace
p15
c__builtin__
object
p16
Ntp17
Rp18
(dp19
S'wd'
p20
NsS'data_dir'
p21
S'data'
p22
sS'train_log_interval'
p23
I10
sS'nologs'
p24
I00
sS'num_epochs'
p25
I100
sS'lr_sched_epochs'
p26
NsS'saveto'
p27
S'res/benchmark_small_final/'
p28
sS'lr_sched_factors'
p29
NsS'run_name'
p30
S'SGD/'
p31
sS'checkpoint_epochs'
p32
I1
sS'print_train_iter'
p33
I00
sS'lr'
p34
F0.003981072
sS'bs'
p35
I128
sS'pickle'
p36
I01
sS'random_seed'
p37
I44
sS'no_time'
p38
I00
sS'test_problem'
p39
S'quadratic.noisy_quadratic'
p40
sbsVtraining/training_loss
p41
(lp42
F268.88043212890625
aF35.752593994140625
aF22.224946975708008
aF27.32668113708496
aF24.657833099365234
aF22.663005828857422
aF19.62749481201172
aF25.194149017333984
aF22.684188842773438
aF20.851308822631836
aF17.855066299438477
aF23.380638122558594
aF21.028827667236328
aF19.399337768554688
aF16.423133850097656
aF21.899585723876953
aF19.681224822998047
aF18.22984504699707
aF15.261253356933594
aF20.683284759521484
aF18.578229904174805
aF17.283794403076172
aF14.313750267028809
aF19.678466796875
aF17.670291900634766
aF16.515064239501953
aF13.537046432495117
aF18.84333038330078
aF16.918556213378906
aF15.887537956237793
aF12.896944046020508
aF18.144947052001953
aF16.292428970336914
aF15.372808456420898
aF12.366532325744629
aF17.55728530883789
aF15.767768859863281
aF14.948537826538086
aF11.924571990966797
aF17.059717178344727
aF15.325462341308594
aF14.59705924987793
aF11.554234504699707
aF16.635814666748047
aF14.950310707092285
aF14.304394721984863
aF11.242168426513672
aF16.27246856689453
aF14.63019847869873
aF14.059425354003906
aF10.977720260620117
aF15.959159851074219
aF14.355428695678711
aF13.853300094604492
aF10.75236701965332
aF15.687410354614258
aF14.118196487426758
aF13.678926467895508
aF10.559273719787598
aF15.450387954711914
aF13.912225723266602
aF13.530633926391602
aF10.392928123474121
aF15.242526054382324
aF13.732403755187988
aF13.40383529663086
aF10.248867988586426
aF15.059294700622559
aF13.57459831237793
aF13.294844627380371
aF10.123477935791016
aF14.896957397460938
aF13.435394287109375
aF13.200654983520508
aF10.013792037963867
aF14.752470016479492
aF13.312026977539062
aF13.118829727172852
aF9.91739273071289
aF14.623286247253418
asVcheckpoint/checkpoint_train_loss
p43
(lp44
F325.56695556640625
aF49.35828399658203
aF32.68439865112305
aF31.106046676635742
aF30.543930053710938
aF30.070755004882812
aF29.621318817138672
aF29.190635681152344
aF28.77783203125
aF28.382177352905273
aF28.002925872802734
aF27.639339447021484
aF27.290708541870117
aF26.956348419189453
aF26.6356143951416
aF26.327884674072266
aF26.03257179260254
aF25.74911880493164
aF25.476991653442383
aF25.215682983398438
aF24.964712142944336
aF24.723613739013672
aF24.491952896118164
aF24.269311904907227
aF24.055294036865234
aF23.849523544311523
aF23.651634216308594
aF23.461286544799805
aF23.278148651123047
aF23.101913452148438
aF22.932281494140625
aF22.768966674804688
aF22.611703872680664
aF22.460229873657227
aF22.314302444458008
aF22.173681259155273
aF22.038150787353516
aF21.907489776611328
aF21.78150177001953
aF21.659988403320312
aF21.54276466369629
aF21.429649353027344
aF21.320480346679688
aF21.21509552001953
aF21.113332748413086
aF21.015052795410156
aF20.92011070251465
aF20.82837677001953
aF20.739717483520508
aF20.65401268005371
aF20.571147918701172
aF20.491004943847656
aF20.413482666015625
aF20.338470458984375
aF20.265878677368164
aF20.195608139038086
aF20.127574920654297
aF20.061687469482422
aF19.997867584228516
aF19.93603515625
aF19.87611198425293
aF19.818031311035156
aF19.761722564697266
aF19.707117080688477
aF19.65415382385254
aF19.60277557373047
aF19.552915573120117
aF19.504528045654297
aF19.457551956176758
aF19.411941528320312
aF19.36764144897461
aF19.324613571166992
aF19.282806396484375
aF19.242177963256836
aF19.202688217163086
aF19.164297103881836
aF19.126962661743164
aF19.090654373168945
aF19.05533218383789
aF19.020967483520508
aF18.98752212524414
aF18.954967498779297
aF18.92327117919922
aF18.892410278320312
aF18.86235237121582
aF18.833072662353516
aF18.804542541503906
aF18.776744842529297
aF18.74964714050293
aF18.72323226928711
aF18.69747543334961
aF18.672359466552734
aF18.647857666015625
aF18.62395668029785
aF18.600637435913086
aF18.577877044677734
aF18.555660247802734
aF18.533973693847656
aF18.512794494628906
aF18.492116928100586
aF18.47191619873047
asVcheckpoint/checkpoint_test_loss
p45
(lp46
F282.3310241699219
aF27.5810546875
aF15.551531791687012
aF15.066006660461426
aF14.773941993713379
aF14.368563652038574
aF13.935349464416504
aF13.50747013092041
aF13.093914985656738
aF12.696621894836426
aF12.315523147583008
aF11.950075149536133
aF11.599637985229492
aF11.263524055480957
aF10.941088676452637
aF10.631723403930664
aF10.334822654724121
aF10.04982852935791
aF9.776226997375488
aF9.5134859085083
aF9.261125564575195
aF9.018694877624512
aF8.785741806030273
aF8.561850547790527
aF8.346626281738281
aF8.139684677124023
aF7.940671920776367
aF7.749227523803711
aF7.565040588378906
aF7.387784957885742
aF7.217162132263184
aF7.052896022796631
aF6.894705772399902
aF6.742335319519043
aF6.595542907714844
aF6.4540863037109375
aF6.317743301391602
aF6.186300277709961
aF6.059555530548096
aF5.937303066253662
aF5.819365978240967
aF5.705563068389893
aF5.595725059509277
aF5.489687919616699
aF5.387295246124268
aF5.288405895233154
aF5.192877292633057
aF5.1005682945251465
aF5.011356353759766
aF4.925107002258301
aF4.841717720031738
aF4.761067867279053
aF4.683050155639648
aF4.60756254196167
aF4.534499645233154
aF4.463784694671631
aF4.3953046798706055
aF4.328988552093506
aF4.264754295349121
aF4.202514171600342
aF4.142195224761963
aF4.083728313446045
aF4.027050018310547
aF3.9720776081085205
aF3.918760299682617
aF3.8670296669006348
aF3.8168392181396484
aF3.7681171894073486
aF3.7208192348480225
aF3.674898386001587
aF3.630291700363159
aF3.5869600772857666
aF3.5448622703552246
aF3.503944158554077
aF3.464175224304199
aF3.4255077838897705
aF3.387908697128296
aF3.3513338565826416
aF3.3157527446746826
aF3.281134843826294
aF3.2474424839019775
aF3.2146434783935547
aF3.1827127933502197
aF3.151613712310791
aF3.1213271617889404
aF3.091820478439331
aF3.0630691051483154
aF3.035048723220825
aF3.0077364444732666
aF2.981112241744995
aF2.9551470279693604
aF2.929825782775879
aF2.9051215648651123
aF2.8810222148895264
aF2.85750150680542
aF2.8345513343811035
aF2.812143564224243
aF2.790268898010254
aF2.768903970718384
aF2.7480382919311523
aF2.727656841278076
asVhyperparams/learning_rate
p47
(lp48
F0.00398107198998332
aF0.00398107198998332
aF0.00398107198998332
aF0.00398107198998332
aF0.00398107198998332
aF0.00398107198998332
aF0.00398107198998332
aF0.00398107198998332
aF0.00398107198998332
aF0.00398107198998332
aF0.00398107198998332
aF0.00398107198998332
aF0.00398107198998332
aF0.00398107198998332
aF0.00398107198998332
aF0.00398107198998332
aF0.00398107198998332
aF0.00398107198998332
aF0.00398107198998332
aF0.00398107198998332
aF0.00398107198998332
aF0.00398107198998332
aF0.00398107198998332
aF0.00398107198998332
aF0.00398107198998332
aF0.00398107198998332
aF0.00398107198998332
aF0.00398107198998332
aF0.00398107198998332
aF0.00398107198998332
aF0.00398107198998332
aF0.00398107198998332
aF0.00398107198998332
aF0.00398107198998332
aF0.00398107198998332
aF0.00398107198998332
aF0.00398107198998332
aF0.00398107198998332
aF0.00398107198998332
aF0.00398107198998332
aF0.00398107198998332
aF0.00398107198998332
aF0.00398107198998332
aF0.00398107198998332
aF0.00398107198998332
aF0.00398107198998332
aF0.00398107198998332
aF0.00398107198998332
aF0.00398107198998332
aF0.00398107198998332
aF0.00398107198998332
aF0.00398107198998332
aF0.00398107198998332
aF0.00398107198998332
aF0.00398107198998332
aF0.00398107198998332
aF0.00398107198998332
aF0.00398107198998332
aF0.00398107198998332
aF0.00398107198998332
aF0.00398107198998332
aF0.00398107198998332
aF0.00398107198998332
aF0.00398107198998332
aF0.00398107198998332
aF0.00398107198998332
aF0.00398107198998332
aF0.00398107198998332
aF0.00398107198998332
aF0.00398107198998332
aF0.00398107198998332
aF0.00398107198998332
aF0.00398107198998332
aF0.00398107198998332
aF0.00398107198998332
aF0.00398107198998332
aF0.00398107198998332
aF0.00398107198998332
aF0.00398107198998332
aF0.00398107198998332
aF0.00398107198998332
aF0.00398107198998332
aF0.00398107198998332
aF0.00398107198998332
aF0.00398107198998332
aF0.00398107198998332
aF0.00398107198998332
aF0.00398107198998332
aF0.00398107198998332
aF0.00398107198998332
aF0.00398107198998332
aF0.00398107198998332
aF0.00398107198998332
aF0.00398107198998332
aF0.00398107198998332
aF0.00398107198998332
aF0.00398107198998332
aF0.00398107198998332
aF0.00398107198998332
aF0.00398107198998332
aF0.00398107198998332
asVtime/convergence_iterations
p49
(lp50
F0.0
aF0.0
aF0.0
aF0.0
aF0.0
aF0.0
aF0.0
aF0.0
aF0.0
aF0.0
aF0.0
aF0.0
aF0.0
aF0.0
aF0.0
aF0.0
aF0.0
aF0.0
aF0.0
aF0.0
aF0.0
aF0.0
aF0.0
aF0.0
aF0.0
aF0.0
aF0.0
aF0.0
aF0.0
aF0.0
aF0.0
aF0.0
aF0.0
aF0.0
aF0.0
aF0.0
aF36.0
aF36.0
aF36.0
aF36.0
aF36.0
aF36.0
aF36.0
aF36.0
aF36.0
aF36.0
aF36.0
aF36.0
aF36.0
aF36.0
aF36.0
aF36.0
aF36.0
aF36.0
aF36.0
aF36.0
aF36.0
aF36.0
aF36.0
aF36.0
aF36.0
aF36.0
aF36.0
aF36.0
aF36.0
aF36.0
aF36.0
aF36.0
aF36.0
aF36.0
aF36.0
aF36.0
aF36.0
aF36.0
aF36.0
aF36.0
aF36.0
aF36.0
aF36.0
aF36.0
aF36.0
aF36.0
aF36.0
aF36.0
aF36.0
aF36.0
aF36.0
aF36.0
aF36.0
aF36.0
aF36.0
aF36.0
aF36.0
aF36.0
aF36.0
aF36.0
aF36.0
aF36.0
aF36.0
aF36.0
aF36.0
as.